CCS PCH C Compiler, Version 5.008, 5967               04-Jul-18 16:11

               Filename:   C:\BA\Software_projects\PIC\1533\BA_1533\BA1533TXv1_0\BA1533TX.lst

               ROM used:   14344 bytes (44%)
                           Largest free fragment is 18420
               RAM used:   251 (16%) at main() level
                           490 (32%) worst case
               Stack used: 10 locations (9 in main + 1 for interrupts)
               Stack size: 30

*
0000:  GOTO   36CE
*
0008:  MOVWF  04
000A:  MOVFF  FD8,05
000E:  MOVFF  FE0,06
0012:  MOVLB  0
0014:  MOVFF  FE9,0C
0018:  MOVFF  FEA,07
001C:  MOVFF  FE1,08
0020:  MOVFF  FE2,09
0024:  MOVFF  FD9,0A
0028:  MOVFF  FDA,0B
002C:  MOVFF  FF3,12
0030:  MOVFF  FF4,13
0034:  MOVFF  FFA,14
0038:  MOVFF  00,0E
003C:  MOVFF  01,0F
0040:  MOVFF  02,10
0044:  MOVFF  03,11
0048:  BTFSS  F9D.1
004A:  GOTO   0054
004E:  BTFSC  F9E.1
0050:  GOTO   053C
0054:  BTFSS  FF2.4
0056:  GOTO   0060
005A:  BTFSC  FF2.1
005C:  GOTO   056C
0060:  BTFSS  FF0.3
0062:  GOTO   006C
0066:  BTFSC  FF0.0
0068:  GOTO   0572
006C:  BTFSS  F9D.5
006E:  GOTO   0078
0072:  BTFSC  F9E.5
0074:  GOTO   0578
0078:  BTFSS  F7D.0
007A:  GOTO   0084
007E:  BTFSC  F7E.0
0080:  GOTO   0536
0084:  MOVFF  0E,00
0088:  MOVFF  0F,01
008C:  MOVFF  10,02
0090:  MOVFF  11,03
0094:  MOVFF  0C,FE9
0098:  MOVFF  07,FEA
009C:  BSF    07.7
009E:  MOVFF  08,FE1
00A2:  MOVFF  09,FE2
00A6:  MOVFF  0A,FD9
00AA:  MOVFF  0B,FDA
00AE:  MOVFF  12,FF3
00B2:  MOVFF  13,FF4
00B6:  MOVFF  14,FFA
00BA:  MOVF   04,W
00BC:  MOVFF  06,FE0
00C0:  MOVFF  05,FD8
00C4:  RETFIE 0
....................  
.................... #include <BA1533TX.h> 
.................... #include <18F45K22.h> 
.................... //////// Standard Header file for the PIC18F45K22 device //////////////// 
.................... #device PIC18F45K22 
00C6:  MOVFF  FF2,0D
00CA:  BCF    FF2.7
00CC:  CLRF   FF7
00CE:  ADDLW  E0
00D0:  MOVWF  FF6
00D2:  MOVLW  00
00D4:  ADDWFC FF7,F
00D6:  TBLRD*+
00D8:  MOVF   FF5,W
00DA:  BTFSC  0D.7
00DC:  BSF    FF2.7
00DE:  RETURN 0
00E0:  DATA 24,46
00E2:  DATA 20,3C
00E4:  DATA 66,72
00E6:  DATA 65,71
00E8:  DATA 75,65
00EA:  DATA 6E,63
00EC:  DATA 79,3E
00EE:  DATA 3C,63
00F0:  DATA 72,3E
00F2:  DATA 20,20
00F4:  DATA 09,53
00F6:  DATA 65,74
00F8:  DATA 20,66
00FA:  DATA 72,65
00FC:  DATA 71,75
00FE:  DATA 65,6E
0100:  DATA 63,79
0102:  DATA 20,69
0104:  DATA 6E,20
0106:  DATA 31,4D
0108:  DATA 48,7A
010A:  DATA 20,69
010C:  DATA 6E,63
010E:  DATA 72,65
0110:  DATA 6D,65
0112:  DATA 6E,74
0114:  DATA 73,20
0116:  DATA 28,69
0118:  DATA 2E,65
011A:  DATA 2E,32
011C:  DATA 32,35
011E:  DATA 30,20
0120:  DATA 69,73
0122:  DATA 20,32
0124:  DATA 2E,32
0126:  DATA 35,30
0128:  DATA 47,48
012A:  DATA 7A,29
012C:  DATA 0D,0A
012E:  DATA 00,00
0130:  MOVFF  FF2,0D
0134:  BCF    FF2.7
0136:  CLRF   FF7
0138:  ADDLW  4A
013A:  MOVWF  FF6
013C:  MOVLW  01
013E:  ADDWFC FF7,F
0140:  TBLRD*+
0142:  MOVF   FF5,W
0144:  BTFSC  0D.7
0146:  BSF    FF2.7
0148:  RETURN 0
014A:  DATA 24,4F
014C:  DATA 4E,20
014E:  DATA 3C,6F
0150:  DATA 6E,6F
0152:  DATA 66,66
0154:  DATA 3E,3C
0156:  DATA 63,72
0158:  DATA 3E,20
015A:  DATA 20,09
015C:  DATA 53,65
015E:  DATA 74,20
0160:  DATA 66,75
0162:  DATA 6C,6C
0164:  DATA 20,6F
0166:  DATA 70,65
0168:  DATA 72,61
016A:  DATA 74,69
016C:  DATA 6F,6E
016E:  DATA 20,6F
0170:  DATA 6E,28
0172:  DATA 31,29
0174:  DATA 20,6F
0176:  DATA 72,20
0178:  DATA 6F,66
017A:  DATA 66,28
017C:  DATA 30,29
017E:  DATA 0D,0A
0180:  DATA 00,00
0182:  MOVFF  FF2,0D
0186:  BCF    FF2.7
0188:  CLRF   FF7
018A:  ADDLW  9C
018C:  MOVWF  FF6
018E:  MOVLW  01
0190:  ADDWFC FF7,F
0192:  TBLRD*+
0194:  MOVF   FF5,W
0196:  BTFSC  0D.7
0198:  BSF    FF2.7
019A:  RETURN 0
019C:  DATA 24,50
019E:  DATA 53,20
01A0:  DATA 3C,70
01A2:  DATA 6F,77
01A4:  DATA 65,72
01A6:  DATA 3E,3C
01A8:  DATA 63,72
01AA:  DATA 3E,20
01AC:  DATA 20,09
01AE:  DATA 53,65
01B0:  DATA 74,20
01B2:  DATA 61,6D
01B4:  DATA 70,20
01B6:  DATA 70,6F
01B8:  DATA 77,65
01BA:  DATA 72,20
01BC:  DATA 6F,6E
01BE:  DATA 28,31
01C0:  DATA 29,20
01C2:  DATA 6F,72
01C4:  DATA 20,6F
01C6:  DATA 66,66
01C8:  DATA 28,30
01CA:  DATA 29,0D
01CC:  DATA 0A,00
01CE:  MOVFF  FF2,0D
01D2:  BCF    FF2.7
01D4:  CLRF   FF7
01D6:  ADDLW  E8
01D8:  MOVWF  FF6
01DA:  MOVLW  01
01DC:  ADDWFC FF7,F
01DE:  TBLRD*+
01E0:  MOVF   FF5,W
01E2:  BTFSC  0D.7
01E4:  BSF    FF2.7
01E6:  RETURN 0
01E8:  DATA 24,50
01EA:  DATA 20,3C
01EC:  DATA 6C,65
01EE:  DATA 76,65
01F0:  DATA 6C,3E
01F2:  DATA 3C,63
01F4:  DATA 72,3E
01F6:  DATA 20,20
01F8:  DATA 09,53
01FA:  DATA 65,74
01FC:  DATA 20,70
01FE:  DATA 6F,77
0200:  DATA 65,72
0202:  DATA 20,6C
0204:  DATA 65,76
0206:  DATA 65,6C
0208:  DATA 20,68
020A:  DATA 69,67
020C:  DATA 68,28
020E:  DATA 31,29
0210:  DATA 20,6F
0212:  DATA 72,20
0214:  DATA 6C,6F
0216:  DATA 77,28
0218:  DATA 30,29
021A:  DATA 0D,0A
021C:  DATA 00,00
021E:  MOVFF  FF2,0D
0222:  BCF    FF2.7
0224:  CLRF   FF7
0226:  ADDLW  38
0228:  MOVWF  FF6
022A:  MOVLW  02
022C:  ADDWFC FF7,F
022E:  TBLRD*+
0230:  MOVF   FF5,W
0232:  BTFSC  0D.7
0234:  BSF    FF2.7
0236:  RETURN 0
0238:  DATA 24,4C
023A:  DATA 44,20
023C:  DATA 3C,66
023E:  DATA 77,64
0240:  DATA 3E,3C
0242:  DATA 63,72
0244:  DATA 3E,20
0246:  DATA 20,09
0248:  DATA 53,65
024A:  DATA 74,20
024C:  DATA 46,77
024E:  DATA 64,20
0250:  DATA 70,6F
0252:  DATA 77,65
0254:  DATA 72,20
0256:  DATA 6D,65
0258:  DATA 61,73
025A:  DATA 75,72
025C:  DATA 65,6D
025E:  DATA 65,6E
0260:  DATA 74,20
0262:  DATA 6F,6E
0264:  DATA 28,31
0266:  DATA 29,20
0268:  DATA 6F,72
026A:  DATA 20,6F
026C:  DATA 66,66
026E:  DATA 28,30
0270:  DATA 29,0D
0272:  DATA 0A,00
0274:  MOVFF  FF2,0D
0278:  BCF    FF2.7
027A:  CLRF   FF7
027C:  ADDLW  8E
027E:  MOVWF  FF6
0280:  MOVLW  02
0282:  ADDWFC FF7,F
0284:  TBLRD*+
0286:  MOVF   FF5,W
0288:  BTFSC  0D.7
028A:  BSF    FF2.7
028C:  RETURN 0
028E:  DATA 24,51
0290:  DATA 3C,63
0292:  DATA 72,3E
0294:  DATA 20,20
0296:  DATA 09,52
0298:  DATA 65,71
029A:  DATA 75,65
029C:  DATA 73,74
029E:  DATA 20,73
02A0:  DATA 74,61
02A2:  DATA 74,75
02A4:  DATA 73,0D
02A6:  DATA 0A,00
02A8:  MOVFF  FF2,0D
02AC:  BCF    FF2.7
02AE:  CLRF   FF7
02B0:  ADDLW  C2
02B2:  MOVWF  FF6
02B4:  MOVLW  02
02B6:  ADDWFC FF7,F
02B8:  TBLRD*+
02BA:  MOVF   FF5,W
02BC:  BTFSC  0D.7
02BE:  BSF    FF2.7
02C0:  RETURN 0
02C2:  DATA 24,42
02C4:  DATA 4D,3C
02C6:  DATA 63,72
02C8:  DATA 3E,20
02CA:  DATA 20,09
02CC:  DATA 42,49
02CE:  DATA 54,20
02D0:  DATA 4D,6F
02D2:  DATA 64,65
02D4:  DATA 20,4F
02D6:  DATA 4E,28
02D8:  DATA 31,29
02DA:  DATA 20,4F
02DC:  DATA 46,46
02DE:  DATA 28,30
02E0:  DATA 29,0D
02E2:  DATA 0A,00
02E4:  MOVFF  FF2,0D
02E8:  BCF    FF2.7
02EA:  CLRF   FF7
02EC:  ADDLW  FE
02EE:  MOVWF  FF6
02F0:  MOVLW  02
02F2:  ADDWFC FF7,F
02F4:  TBLRD*+
02F6:  MOVF   FF5,W
02F8:  BTFSC  0D.7
02FA:  BSF    FF2.7
02FC:  RETURN 0
02FE:  DATA 24,54
0300:  DATA 52,3C
0302:  DATA 63,72
0304:  DATA 3E,20
0306:  DATA 20,09
0308:  DATA 54,52
030A:  DATA 41,4E
030C:  DATA 53,49
030E:  DATA 56,45
0310:  DATA 52,28
0312:  DATA 54,29
0314:  DATA 20,52
0316:  DATA 45,43
0318:  DATA 49,56
031A:  DATA 45,52
031C:  DATA 28,52
031E:  DATA 29,00
0320:  MOVFF  FF2,0D
0324:  BCF    FF2.7
0326:  CLRF   FF7
0328:  ADDLW  3A
032A:  MOVWF  FF6
032C:  MOVLW  03
032E:  ADDWFC FF7,F
0330:  TBLRD*+
0332:  MOVF   FF5,W
0334:  BTFSC  0D.7
0336:  BSF    FF2.7
0338:  RETURN 0
033A:  DATA 47,4F
033C:  DATA 4F,44
033E:  DATA 00,00
0340:  MOVFF  FF2,0D
0344:  BCF    FF2.7
0346:  CLRF   FF7
0348:  ADDLW  5A
034A:  MOVWF  FF6
034C:  MOVLW  03
034E:  ADDWFC FF7,F
0350:  TBLRD*+
0352:  MOVF   FF5,W
0354:  BTFSC  0D.7
0356:  BSF    FF2.7
0358:  RETURN 0
035A:  DATA 42,41
035C:  DATA 44,00
035E:  MOVFF  FF2,0D
0362:  BCF    FF2.7
0364:  CLRF   FF7
0366:  ADDLW  78
0368:  MOVWF  FF6
036A:  MOVLW  03
036C:  ADDWFC FF7,F
036E:  TBLRD*+
0370:  MOVF   FF5,W
0372:  BTFSC  0D.7
0374:  BSF    FF2.7
0376:  RETURN 0
0378:  DATA 4F,4E
037A:  DATA 00,00
037C:  MOVFF  FF2,0D
0380:  BCF    FF2.7
0382:  CLRF   FF7
0384:  ADDLW  96
0386:  MOVWF  FF6
0388:  MOVLW  03
038A:  ADDWFC FF7,F
038C:  TBLRD*+
038E:  MOVF   FF5,W
0390:  BTFSC  0D.7
0392:  BSF    FF2.7
0394:  RETURN 0
0396:  DATA 4F,46
0398:  DATA 46,00
039A:  MOVFF  FF2,0D
039E:  BCF    FF2.7
03A0:  CLRF   FF7
03A2:  ADDLW  B4
03A4:  MOVWF  FF6
03A6:  MOVLW  03
03A8:  ADDWFC FF7,F
03AA:  TBLRD*+
03AC:  MOVF   FF5,W
03AE:  BTFSC  0D.7
03B0:  BSF    FF2.7
03B2:  RETURN 0
03B4:  DATA 53,54
03B6:  DATA 41,52
03B8:  DATA 54,00
03BA:  MOVFF  FF2,0D
03BE:  BCF    FF2.7
03C0:  CLRF   FF7
03C2:  ADDLW  D4
03C4:  MOVWF  FF6
03C6:  MOVLW  03
03C8:  ADDWFC FF7,F
03CA:  TBLRD*+
03CC:  MOVF   FF5,W
03CE:  BTFSC  0D.7
03D0:  BSF    FF2.7
03D2:  RETURN 0
03D4:  DATA 53,54
03D6:  DATA 4F,50
03D8:  DATA 00,00
03DA:  MOVFF  FF2,0D
03DE:  BCF    FF2.7
03E0:  CLRF   FF7
03E2:  ADDLW  F4
03E4:  MOVWF  FF6
03E6:  MOVLW  03
03E8:  ADDWFC FF7,F
03EA:  TBLRD*+
03EC:  MOVF   FF5,W
03EE:  BTFSC  0D.7
03F0:  BSF    FF2.7
03F2:  RETURN 0
03F4:  DATA 4C,4F
03F6:  DATA 43,4B
03F8:  DATA 00,00
03FA:  MOVFF  FF2,0D
03FE:  BCF    FF2.7
0400:  CLRF   FF7
0402:  ADDLW  14
0404:  MOVWF  FF6
0406:  MOVLW  04
0408:  ADDWFC FF7,F
040A:  TBLRD*+
040C:  MOVF   FF5,W
040E:  BTFSC  0D.7
0410:  BSF    FF2.7
0412:  RETURN 0
0414:  DATA 4E,4F
0416:  DATA 54,20
0418:  DATA 4C,4F
041A:  DATA 43,4B
041C:  DATA 00,00
041E:  MOVFF  FF2,0D
0422:  BCF    FF2.7
0424:  CLRF   FF7
0426:  ADDLW  38
0428:  MOVWF  FF6
042A:  MOVLW  04
042C:  ADDWFC FF7,F
042E:  TBLRD*+
0430:  MOVF   FF5,W
0432:  BTFSC  0D.7
0434:  BSF    FF2.7
0436:  RETURN 0
0438:  DATA 48,49
043A:  DATA 47,48
043C:  DATA 00,00
043E:  MOVFF  FF2,0D
0442:  BCF    FF2.7
0444:  CLRF   FF7
0446:  ADDLW  58
0448:  MOVWF  FF6
044A:  MOVLW  04
044C:  ADDWFC FF7,F
044E:  TBLRD*+
0450:  MOVF   FF5,W
0452:  BTFSC  0D.7
0454:  BSF    FF2.7
0456:  RETURN 0
0458:  DATA 4C,4F
045A:  DATA 57,00
045C:  MOVFF  FF2,0D
0460:  BCF    FF2.7
0462:  CLRF   FF7
0464:  ADDLW  76
0466:  MOVWF  FF6
0468:  MOVLW  04
046A:  ADDWFC FF7,F
046C:  TBLRD*+
046E:  MOVF   FF5,W
0470:  BTFSC  0D.7
0472:  BSF    FF2.7
0474:  RETURN 0
0476:  DATA 0D,0A
0478:  DATA 24,46
047A:  DATA 41,49
047C:  DATA 4C,0D
047E:  DATA 0A,00
0480:  MOVFF  FF2,0D
0484:  BCF    FF2.7
0486:  CLRF   FF7
0488:  ADDLW  9A
048A:  MOVWF  FF6
048C:  MOVLW  04
048E:  ADDWFC FF7,F
0490:  TBLRD*+
0492:  MOVF   FF5,W
0494:  BTFSC  0D.7
0496:  BSF    FF2.7
0498:  RETURN 0
049A:  DATA 0D,0A
049C:  DATA 24,54
049E:  DATA 0D,0A
04A0:  DATA 00,00
04A2:  MOVFF  FF2,0D
04A6:  BCF    FF2.7
04A8:  CLRF   FF7
04AA:  ADDLW  BC
04AC:  MOVWF  FF6
04AE:  MOVLW  04
04B0:  ADDWFC FF7,F
04B2:  TBLRD*+
04B4:  MOVF   FF5,W
04B6:  BTFSC  0D.7
04B8:  BSF    FF2.7
04BA:  RETURN 0
04BC:  DATA 0D,0A
04BE:  DATA 24,46
04C0:  DATA 41,55
04C2:  DATA 4C,54
04C4:  DATA 0D,0A
04C6:  DATA 00,00
04C8:  MOVFF  FF2,0D
04CC:  BCF    FF2.7
04CE:  CLRF   FF7
04D0:  ADDLW  E2
04D2:  MOVWF  FF6
04D4:  MOVLW  04
04D6:  ADDWFC FF7,F
04D8:  TBLRD*+
04DA:  MOVF   FF5,W
04DC:  BTFSC  0D.7
04DE:  BSF    FF2.7
04E0:  RETURN 0
04E2:  DATA 0D,0A
04E4:  DATA 24,4F
04E6:  DATA 4B,0D
04E8:  DATA 0A,00
04EA:  MOVFF  FF2,0D
04EE:  BCF    FF2.7
04F0:  CLRF   FF7
04F2:  ADDLW  04
04F4:  MOVWF  FF6
04F6:  MOVLW  05
04F8:  ADDWFC FF7,F
04FA:  TBLRD*+
04FC:  MOVF   FF5,W
04FE:  BTFSC  0D.7
0500:  BSF    FF2.7
0502:  RETURN 0
0504:  DATA 0D,0A
0506:  DATA 42,52
0508:  DATA 45,41
050A:  DATA 4B,0D
050C:  DATA 0A,00
050E:  MOVFF  FF2,0D
0512:  BCF    FF2.7
0514:  CLRF   FF7
0516:  ADDLW  28
0518:  MOVWF  FF6
051A:  MOVLW  05
051C:  ADDWFC FF7,F
051E:  TBLRD*+
0520:  MOVF   FF5,W
0522:  BTFSC  0D.7
0524:  BSF    FF2.7
0526:  RETURN 0
0528:  DATA 42,41
052A:  DATA 31,35
052C:  DATA 33,33
052E:  DATA 54,58
0530:  DATA 20,56
0532:  DATA 31,2E
0534:  DATA 30,00
*
05A6:  DATA 0D,0A
05A8:  DATA 33,2E
05AA:  DATA 33,76
05AC:  DATA 20,70
05AE:  DATA 6F,77
05B0:  DATA 65,72
05B2:  DATA 20,69
05B4:  DATA 6E,3D
05B6:  DATA 25,32
05B8:  DATA 2E,31
05BA:  DATA 66,28
05BC:  DATA 76,29
05BE:  DATA 20,32
05C0:  DATA 38,76
05C2:  DATA 20,70
05C4:  DATA 6F,77
05C6:  DATA 65,72
05C8:  DATA 20,69
05CA:  DATA 6E,3D
05CC:  DATA 25,32
05CE:  DATA 2E,31
05D0:  DATA 66,28
05D2:  DATA 76,29
05D4:  DATA 20,46
05D6:  DATA 46,57
05D8:  DATA 52,32
05DA:  DATA 3D,25
05DC:  DATA 32,2E
05DE:  DATA 31,66
05E0:  DATA 28,76
05E2:  DATA 29,00
05E4:  DATA 0D,0A
05E6:  DATA 4E,45
05E8:  DATA 67,61
05EA:  DATA 74,69
05EC:  DATA 76,65
05EE:  DATA 20,56
05F0:  DATA 6F,6C
05F2:  DATA 74,61
05F4:  DATA 67,65
05F6:  DATA 20,4C
05F8:  DATA 4F,57
05FA:  DATA 3D,25
05FC:  DATA 6C,75
05FE:  DATA 20,28
0600:  DATA 25,2E
0602:  DATA 31,66
0604:  DATA 6D,76
0606:  DATA 29,20
0608:  DATA 48,69
060A:  DATA 67,68
060C:  DATA 3D,25
060E:  DATA 6C,75
0610:  DATA 20,28
0612:  DATA 25,2E
0614:  DATA 31,66
0616:  DATA 6D,76
0618:  DATA 29,00
061A:  DATA 0D,0A
061C:  DATA 50,6F
061E:  DATA 73,69
0620:  DATA 74,69
0622:  DATA 76,65
0624:  DATA 20,56
0626:  DATA 6F,6C
0628:  DATA 74,61
062A:  DATA 67,65
062C:  DATA 20,4C
062E:  DATA 4F,57
0630:  DATA 3D,25
0632:  DATA 6C,75
0634:  DATA 20,28
0636:  DATA 25,2E
0638:  DATA 31,66
063A:  DATA 6D,76
063C:  DATA 29,20
063E:  DATA 48,69
0640:  DATA 67,68
0642:  DATA 3D,25
0644:  DATA 6C,75
0646:  DATA 20,28
0648:  DATA 25,2E
064A:  DATA 31,66
064C:  DATA 6D,76
064E:  DATA 29,00
0650:  DATA 0D,0A
0652:  DATA 46,52
0654:  DATA 45,51
0656:  DATA 3D,25
0658:  DATA 6C,75
065A:  DATA 2C,20
065C:  DATA 52,45
065E:  DATA 56,3D
0660:  DATA 25,73
0662:  DATA 2C,20
0664:  DATA 4C,49
0666:  DATA 47,48
0668:  DATA 54,3D
066A:  DATA 25,73
066C:  DATA 2C,20
066E:  DATA 46,57
0670:  DATA 44,3D
0672:  DATA 25,6C
0674:  DATA 75,64
0676:  DATA 42,4D
0678:  DATA 2C,20
067A:  DATA 54,45
067C:  DATA 4D,50
067E:  DATA 3D,25
0680:  DATA 35,2E
0682:  DATA 31,66
0684:  DATA 2C,20
0686:  DATA 54,52
0688:  DATA 41,4E
068A:  DATA 53,4D
068C:  DATA 49,54
068E:  DATA 3D,25
0690:  DATA 73,2C
0692:  DATA 20,49
0694:  DATA 44,3D
0696:  DATA 25,6C
0698:  DATA 75,2C
069A:  DATA 20,44
069C:  DATA 43,3D
069E:  DATA 25,30
06A0:  DATA 32,6C
06A2:  DATA 75,25
06A4:  DATA 30,32
06A6:  DATA 75,2C
06A8:  DATA 20,56
06AA:  DATA 45,52
06AC:  DATA 20,25
06AE:  DATA 6C,73
06B0:  DATA 2C,20
06B2:  DATA 00,00
06B4:  DATA 56,31
06B6:  DATA 2E,30
06B8:  DATA 00,00
06BA:  DATA 42,49
06BC:  DATA 54,20
06BE:  DATA 4D,4F
06C0:  DATA 44,45
06C2:  DATA 3D,25
06C4:  DATA 73,2C
06C6:  DATA 20,53
06C8:  DATA 59,4E
06CA:  DATA 54,48
06CC:  DATA 20,4C
06CE:  DATA 4F,43
06D0:  DATA 4B,3D
06D2:  DATA 25,73
06D4:  DATA 2C,20
06D6:  DATA 50,4F
06D8:  DATA 57,45
06DA:  DATA 52,3D
06DC:  DATA 25,73
06DE:  DATA 2C,20
06E0:  DATA 4D,4F
06E2:  DATA 44,55
06E4:  DATA 4C,45
06E6:  DATA 20,54
06E8:  DATA 59,50
06EA:  DATA 45,3D
06EC:  DATA 54,58
06EE:  DATA 2C,00
06F0:  DATA 0D,0A
06F2:  DATA 24,46
06F4:  DATA 41,49
06F6:  DATA 4C,0D
06F8:  DATA 0A,00
*
07EE:  TSTFSZ 01
07F0:  BRA    07F8
07F2:  TSTFSZ 02
07F4:  BRA    07FA
07F6:  BRA    0806
07F8:  INCF   02,F
07FA:  MOVFF  00,FEE
07FE:  DECFSZ 01,F
0800:  BRA    07FA
0802:  DECFSZ 02,F
0804:  BRA    07FA
0806:  GOTO   0842 (RETURN)
*
0A1E:  MOVLB  1
0A20:  MOVF   x41,W
0A22:  MULWF  x43
0A24:  MOVFF  FF3,01
0A28:  MOVFF  FF4,00
0A2C:  MULWF  x44
0A2E:  MOVF   FF3,W
0A30:  ADDWF  00,F
0A32:  MOVF   x42,W
0A34:  MULWF  x43
0A36:  MOVF   FF3,W
0A38:  ADDWFC 00,W
0A3A:  MOVWF  02
0A3C:  MOVLB  0
0A3E:  RETURN 0
0A40:  MOVLB  1
0A42:  CLRF   x59
0A44:  CLRF   x5A
0A46:  MOVLW  01
0A48:  MOVWF  x5B
0A4A:  CLRF   FDA
0A4C:  CLRF   FD9
0A4E:  MOVWF  x5E
0A50:  MOVLW  51
0A52:  MOVWF  x5D
0A54:  MOVLW  01
0A56:  MOVWF  FEA
0A58:  MOVLW  55
0A5A:  MOVWF  FE9
0A5C:  MOVFF  15E,FE2
0A60:  MOVFF  15D,FE1
0A64:  MOVFF  15B,15C
0A68:  BCF    FD8.0
0A6A:  MOVF   FE5,W
0A6C:  MULWF  FEE
0A6E:  MOVF   FF3,W
0A70:  ADDWFC x59,F
0A72:  MOVF   FF4,W
0A74:  ADDWFC x5A,F
0A76:  DECFSZ x5C,F
0A78:  BRA    0A68
0A7A:  MOVFF  159,FDE
0A7E:  MOVFF  15A,159
0A82:  CLRF   x5A
0A84:  BTFSC  FD8.0
0A86:  INCF   x5A,F
0A88:  INCF   x5D,F
0A8A:  BTFSC  FD8.2
0A8C:  INCF   x5E,F
0A8E:  INCF   x5B,F
0A90:  MOVF   x5B,W
0A92:  SUBLW  05
0A94:  BNZ   0A54
0A96:  MOVLB  0
0A98:  RETURN 0
0A9A:  BTFSC  FD8.1
0A9C:  BRA    0AA6
0A9E:  MOVLW  01
0AA0:  MOVWF  FEA
0AA2:  MOVLW  E2
0AA4:  MOVWF  FE9
0AA6:  CLRF   00
0AA8:  CLRF   01
0AAA:  CLRF   02
0AAC:  CLRF   03
0AAE:  MOVLB  1
0AB0:  CLRF   xE2
0AB2:  CLRF   xE3
0AB4:  CLRF   xE4
0AB6:  CLRF   xE5
0AB8:  MOVF   xE1,W
0ABA:  IORWF  xE0,W
0ABC:  IORWF  xDF,W
0ABE:  IORWF  xDE,W
0AC0:  BZ    0B1A
0AC2:  MOVLW  20
0AC4:  MOVWF  xE6
0AC6:  BCF    FD8.0
0AC8:  RLCF   xDA,F
0ACA:  RLCF   xDB,F
0ACC:  RLCF   xDC,F
0ACE:  RLCF   xDD,F
0AD0:  RLCF   xE2,F
0AD2:  RLCF   xE3,F
0AD4:  RLCF   xE4,F
0AD6:  RLCF   xE5,F
0AD8:  MOVF   xE1,W
0ADA:  SUBWF  xE5,W
0ADC:  BNZ   0AEE
0ADE:  MOVF   xE0,W
0AE0:  SUBWF  xE4,W
0AE2:  BNZ   0AEE
0AE4:  MOVF   xDF,W
0AE6:  SUBWF  xE3,W
0AE8:  BNZ   0AEE
0AEA:  MOVF   xDE,W
0AEC:  SUBWF  xE2,W
0AEE:  BNC   0B0E
0AF0:  MOVF   xDE,W
0AF2:  SUBWF  xE2,F
0AF4:  MOVF   xDF,W
0AF6:  BTFSS  FD8.0
0AF8:  INCFSZ xDF,W
0AFA:  SUBWF  xE3,F
0AFC:  MOVF   xE0,W
0AFE:  BTFSS  FD8.0
0B00:  INCFSZ xE0,W
0B02:  SUBWF  xE4,F
0B04:  MOVF   xE1,W
0B06:  BTFSS  FD8.0
0B08:  INCFSZ xE1,W
0B0A:  SUBWF  xE5,F
0B0C:  BSF    FD8.0
0B0E:  RLCF   00,F
0B10:  RLCF   01,F
0B12:  RLCF   02,F
0B14:  RLCF   03,F
0B16:  DECFSZ xE6,F
0B18:  BRA    0AC6
0B1A:  MOVFF  1E2,FEF
0B1E:  MOVFF  1E3,FEC
0B22:  MOVFF  1E4,FEC
0B26:  MOVFF  1E5,FEC
0B2A:  MOVLB  0
0B2C:  RETURN 0
*
1388:  MOVLB  1
138A:  MOVF   x44,W
138C:  XORWF  x46,W
138E:  ANDLW  80
1390:  MOVWF  x48
1392:  BTFSS  x44.7
1394:  BRA    13A0
1396:  COMF   x43,F
1398:  COMF   x44,F
139A:  INCF   x43,F
139C:  BTFSC  FD8.2
139E:  INCF   x44,F
13A0:  BTFSS  x46.7
13A2:  BRA    13AE
13A4:  COMF   x45,F
13A6:  COMF   x46,F
13A8:  INCF   x45,F
13AA:  BTFSC  FD8.2
13AC:  INCF   x46,F
13AE:  MOVF   x43,W
13B0:  MULWF  x45
13B2:  MOVFF  FF3,01
13B6:  MOVFF  FF4,00
13BA:  MULWF  x46
13BC:  MOVF   FF3,W
13BE:  ADDWF  00,F
13C0:  MOVF   x44,W
13C2:  MULWF  x45
13C4:  MOVF   FF3,W
13C6:  ADDWFC 00,W
13C8:  MOVWF  02
13CA:  BTFSS  x48.7
13CC:  BRA    13D8
13CE:  COMF   01,F
13D0:  COMF   02,F
13D2:  INCF   01,F
13D4:  BTFSC  FD8.2
13D6:  INCF   02,F
13D8:  MOVLB  0
13DA:  RETURN 0
*
15FA:  MOVLW  8E
15FC:  MOVWF  00
15FE:  MOVFF  1CE,01
1602:  MOVFF  1CD,02
1606:  CLRF   03
1608:  MOVF   01,F
160A:  BNZ   161E
160C:  MOVFF  02,01
1610:  CLRF   02
1612:  MOVLW  08
1614:  SUBWF  00,F
1616:  MOVF   01,F
1618:  BNZ   161E
161A:  CLRF   00
161C:  BRA    162E
161E:  BCF    FD8.0
1620:  BTFSC  01.7
1622:  BRA    162C
1624:  RLCF   02,F
1626:  RLCF   01,F
1628:  DECF   00,F
162A:  BRA    161E
162C:  BCF    01.7
162E:  RETURN 0
1630:  MOVLB  1
1632:  MOVF   xDA,W
1634:  BTFSC  FD8.2
1636:  BRA    171A
1638:  MOVWF  00
163A:  MOVF   xDE,W
163C:  BTFSC  FD8.2
163E:  BRA    171A
1640:  ADDWF  00,F
1642:  BNC   164C
1644:  MOVLW  81
1646:  ADDWF  00,F
1648:  BC    171A
164A:  BRA    1654
164C:  MOVLW  7F
164E:  SUBWF  00,F
1650:  BNC   171A
1652:  BZ    171A
1654:  MOVFF  1DB,1E2
1658:  MOVF   xDF,W
165A:  XORWF  xE2,F
165C:  BSF    xDB.7
165E:  BSF    xDF.7
1660:  MOVF   xDD,W
1662:  MULWF  xE1
1664:  MOVFF  FF4,1E4
1668:  MOVF   xDC,W
166A:  MULWF  xE0
166C:  MOVFF  FF4,03
1670:  MOVFF  FF3,1E3
1674:  MULWF  xE1
1676:  MOVF   FF3,W
1678:  ADDWF  xE4,F
167A:  MOVF   FF4,W
167C:  ADDWFC xE3,F
167E:  MOVLW  00
1680:  ADDWFC 03,F
1682:  MOVF   xDD,W
1684:  MULWF  xE0
1686:  MOVF   FF3,W
1688:  ADDWF  xE4,F
168A:  MOVF   FF4,W
168C:  ADDWFC xE3,F
168E:  MOVLW  00
1690:  CLRF   02
1692:  ADDWFC 03,F
1694:  ADDWFC 02,F
1696:  MOVF   xDB,W
1698:  MULWF  xE1
169A:  MOVF   FF3,W
169C:  ADDWF  xE3,F
169E:  MOVF   FF4,W
16A0:  ADDWFC 03,F
16A2:  MOVLW  00
16A4:  ADDWFC 02,F
16A6:  MOVF   xDB,W
16A8:  MULWF  xE0
16AA:  MOVF   FF3,W
16AC:  ADDWF  03,F
16AE:  MOVF   FF4,W
16B0:  ADDWFC 02,F
16B2:  MOVLW  00
16B4:  CLRF   01
16B6:  ADDWFC 01,F
16B8:  MOVF   xDD,W
16BA:  MULWF  xDF
16BC:  MOVF   FF3,W
16BE:  ADDWF  xE3,F
16C0:  MOVF   FF4,W
16C2:  ADDWFC 03,F
16C4:  MOVLW  00
16C6:  ADDWFC 02,F
16C8:  ADDWFC 01,F
16CA:  MOVF   xDC,W
16CC:  MULWF  xDF
16CE:  MOVF   FF3,W
16D0:  ADDWF  03,F
16D2:  MOVF   FF4,W
16D4:  ADDWFC 02,F
16D6:  MOVLW  00
16D8:  ADDWFC 01,F
16DA:  MOVF   xDB,W
16DC:  MULWF  xDF
16DE:  MOVF   FF3,W
16E0:  ADDWF  02,F
16E2:  MOVF   FF4,W
16E4:  ADDWFC 01,F
16E6:  INCF   00,F
16E8:  BTFSC  01.7
16EA:  BRA    16F6
16EC:  RLCF   xE3,F
16EE:  RLCF   03,F
16F0:  RLCF   02,F
16F2:  RLCF   01,F
16F4:  DECF   00,F
16F6:  MOVLW  00
16F8:  BTFSS  xE3.7
16FA:  BRA    1710
16FC:  INCF   03,F
16FE:  ADDWFC 02,F
1700:  ADDWFC 01,F
1702:  MOVF   01,W
1704:  BNZ   1710
1706:  MOVF   02,W
1708:  BNZ   1710
170A:  MOVF   03,W
170C:  BNZ   1710
170E:  INCF   00,F
1710:  BTFSC  xE2.7
1712:  BSF    01.7
1714:  BTFSS  xE2.7
1716:  BCF    01.7
1718:  BRA    1722
171A:  CLRF   00
171C:  CLRF   01
171E:  CLRF   02
1720:  CLRF   03
1722:  MOVLB  0
1724:  RETURN 0
1726:  MOVLW  8E
1728:  MOVWF  00
172A:  MOVLB  1
172C:  MOVF   x3D,W
172E:  SUBWF  00,F
1730:  MOVFF  13E,02
1734:  MOVFF  13F,01
1738:  BSF    02.7
173A:  MOVF   00,F
173C:  BZ    1750
173E:  BCF    FD8.0
1740:  MOVF   02,F
1742:  BNZ   1748
1744:  MOVF   01,F
1746:  BZ    1750
1748:  RRCF   02,F
174A:  RRCF   01,F
174C:  DECFSZ 00,F
174E:  BRA    173E
1750:  BTFSS  x3E.7
1752:  BRA    175E
1754:  COMF   01,F
1756:  COMF   02,F
1758:  INCF   01,F
175A:  BTFSC  FD8.2
175C:  INCF   02,F
175E:  MOVLB  0
1760:  RETURN 0
1762:  MOVLB  1
1764:  MOVF   xD1,W
1766:  BTFSC  FD8.2
1768:  BRA    18B4
176A:  MOVWF  xDD
176C:  MOVF   xD5,W
176E:  BTFSC  FD8.2
1770:  BRA    18B4
1772:  SUBWF  xDD,F
1774:  BNC   1780
1776:  MOVLW  7F
1778:  ADDWF  xDD,F
177A:  BTFSC  FD8.0
177C:  BRA    18B4
177E:  BRA    178C
1780:  MOVLW  81
1782:  SUBWF  xDD,F
1784:  BTFSS  FD8.0
1786:  BRA    18B4
1788:  BTFSC  FD8.2
178A:  BRA    18B4
178C:  MOVFF  1DD,00
1790:  CLRF   01
1792:  CLRF   02
1794:  CLRF   03
1796:  CLRF   xDC
1798:  MOVFF  1D2,1DB
179C:  BSF    xDB.7
179E:  MOVFF  1D3,1DA
17A2:  MOVFF  1D4,1D9
17A6:  MOVLW  19
17A8:  MOVWF  xDD
17AA:  MOVF   xD8,W
17AC:  SUBWF  xD9,F
17AE:  BC    17CA
17B0:  MOVLW  01
17B2:  SUBWF  xDA,F
17B4:  BC    17CA
17B6:  SUBWF  xDB,F
17B8:  BC    17CA
17BA:  SUBWF  xDC,F
17BC:  BC    17CA
17BE:  INCF   xDC,F
17C0:  INCF   xDB,F
17C2:  INCF   xDA,F
17C4:  MOVF   xD8,W
17C6:  ADDWF  xD9,F
17C8:  BRA    181A
17CA:  MOVF   xD7,W
17CC:  SUBWF  xDA,F
17CE:  BC    17F4
17D0:  MOVLW  01
17D2:  SUBWF  xDB,F
17D4:  BC    17F4
17D6:  SUBWF  xDC,F
17D8:  BC    17F4
17DA:  INCF   xDC,F
17DC:  INCF   xDB,F
17DE:  MOVF   xD7,W
17E0:  ADDWF  xDA,F
17E2:  MOVF   xD8,W
17E4:  ADDWF  xD9,F
17E6:  BNC   181A
17E8:  INCF   xDA,F
17EA:  BNZ   181A
17EC:  INCF   xDB,F
17EE:  BNZ   181A
17F0:  INCF   xDC,F
17F2:  BRA    181A
17F4:  MOVF   xD6,W
17F6:  IORLW  80
17F8:  SUBWF  xDB,F
17FA:  BC    1818
17FC:  MOVLW  01
17FE:  SUBWF  xDC,F
1800:  BC    1818
1802:  INCF   xDC,F
1804:  MOVF   xD6,W
1806:  IORLW  80
1808:  ADDWF  xDB,F
180A:  MOVF   xD7,W
180C:  ADDWF  xDA,F
180E:  BNC   17E2
1810:  INCF   xDB,F
1812:  BNZ   17E2
1814:  INCF   xDC,F
1816:  BRA    17E2
1818:  BSF    03.0
181A:  DECFSZ xDD,F
181C:  BRA    1820
181E:  BRA    1836
1820:  BCF    FD8.0
1822:  RLCF   xD9,F
1824:  RLCF   xDA,F
1826:  RLCF   xDB,F
1828:  RLCF   xDC,F
182A:  BCF    FD8.0
182C:  RLCF   03,F
182E:  RLCF   02,F
1830:  RLCF   01,F
1832:  RLCF   xDE,F
1834:  BRA    17AA
1836:  BTFSS  xDE.0
1838:  BRA    1846
183A:  BCF    FD8.0
183C:  RRCF   01,F
183E:  RRCF   02,F
1840:  RRCF   03,F
1842:  RRCF   xDE,F
1844:  BRA    184A
1846:  DECF   00,F
1848:  BZ    18B4
184A:  BTFSC  xDE.7
184C:  BRA    188A
184E:  BCF    FD8.0
1850:  RLCF   xD9,F
1852:  RLCF   xDA,F
1854:  RLCF   xDB,F
1856:  RLCF   xDC,F
1858:  MOVF   xD8,W
185A:  SUBWF  xD9,F
185C:  BC    186C
185E:  MOVLW  01
1860:  SUBWF  xDA,F
1862:  BC    186C
1864:  SUBWF  xDB,F
1866:  BC    186C
1868:  SUBWF  xDC,F
186A:  BNC   18A0
186C:  MOVF   xD7,W
186E:  SUBWF  xDA,F
1870:  BC    187C
1872:  MOVLW  01
1874:  SUBWF  xDB,F
1876:  BC    187C
1878:  SUBWF  xDC,F
187A:  BNC   18A0
187C:  MOVF   xD6,W
187E:  IORLW  80
1880:  SUBWF  xDB,F
1882:  BC    188A
1884:  MOVLW  01
1886:  SUBWF  xDC,F
1888:  BNC   18A0
188A:  INCF   03,F
188C:  BNZ   18A0
188E:  INCF   02,F
1890:  BNZ   18A0
1892:  INCF   01,F
1894:  BNZ   18A0
1896:  INCF   00,F
1898:  BZ    18B4
189A:  RRCF   01,F
189C:  RRCF   02,F
189E:  RRCF   03,F
18A0:  MOVFF  1D2,1DD
18A4:  MOVF   xD6,W
18A6:  XORWF  xDD,F
18A8:  BTFSS  xDD.7
18AA:  BRA    18B0
18AC:  BSF    01.7
18AE:  BRA    18BC
18B0:  BCF    01.7
18B2:  BRA    18BC
18B4:  CLRF   00
18B6:  CLRF   01
18B8:  CLRF   02
18BA:  CLRF   03
18BC:  MOVLB  0
18BE:  RETURN 0
18C0:  MOVLW  80
18C2:  BTFSS  FD8.1
18C4:  BRA    18CA
18C6:  MOVLB  1
18C8:  XORWF  xD2,F
18CA:  MOVLB  1
18CC:  CLRF   xD7
18CE:  CLRF   xD8
18D0:  MOVFF  1CE,1D6
18D4:  MOVF   xD2,W
18D6:  XORWF  xD6,F
18D8:  MOVF   xCD,W
18DA:  BTFSC  FD8.2
18DC:  BRA    1A9C
18DE:  MOVWF  xD5
18E0:  MOVWF  00
18E2:  MOVF   xD1,W
18E4:  BTFSC  FD8.2
18E6:  BRA    1AAE
18E8:  SUBWF  xD5,F
18EA:  BTFSC  FD8.2
18EC:  BRA    19F4
18EE:  BNC   196C
18F0:  MOVFF  1D2,1DB
18F4:  BSF    xDB.7
18F6:  MOVFF  1D3,1DA
18FA:  MOVFF  1D4,1D9
18FE:  CLRF   xD8
1900:  BCF    FD8.0
1902:  RRCF   xDB,F
1904:  RRCF   xDA,F
1906:  RRCF   xD9,F
1908:  RRCF   xD8,F
190A:  DECFSZ xD5,F
190C:  BRA    18FE
190E:  BTFSS  xD6.7
1910:  BRA    1918
1912:  BSF    xD7.0
1914:  BRA    1AD6
1916:  BCF    xD7.0
1918:  BCF    xD5.0
191A:  BSF    xD7.4
191C:  MOVLW  01
191E:  MOVWF  FEA
1920:  MOVLW  D0
1922:  MOVWF  FE9
1924:  BRA    1AFC
1926:  BCF    xD7.4
1928:  BTFSC  xD6.7
192A:  BRA    1940
192C:  BTFSS  xD5.0
192E:  BRA    1956
1930:  RRCF   xDB,F
1932:  RRCF   xDA,F
1934:  RRCF   xD9,F
1936:  RRCF   xD8,F
1938:  INCF   00,F
193A:  BTFSC  FD8.2
193C:  BRA    1ACC
193E:  BRA    1956
1940:  BTFSC  xDB.7
1942:  BRA    195C
1944:  BCF    FD8.0
1946:  RLCF   xD8,F
1948:  RLCF   xD9,F
194A:  RLCF   xDA,F
194C:  RLCF   xDB,F
194E:  DECF   00,F
1950:  BTFSC  FD8.2
1952:  BRA    1ACC
1954:  BRA    1940
1956:  BSF    xD7.6
1958:  BRA    1A34
195A:  BCF    xD7.6
195C:  MOVFF  1CE,1D6
1960:  BTFSS  xCE.7
1962:  BRA    1968
1964:  BSF    xDB.7
1966:  BRA    1ABE
1968:  BCF    xDB.7
196A:  BRA    1ABE
196C:  MOVFF  1D1,1D5
1970:  MOVFF  1D1,00
1974:  MOVF   xCD,W
1976:  SUBWF  xD5,F
1978:  MOVFF  1CE,1DB
197C:  BSF    xDB.7
197E:  MOVFF  1CF,1DA
1982:  MOVFF  1D0,1D9
1986:  CLRF   xD8
1988:  BCF    FD8.0
198A:  RRCF   xDB,F
198C:  RRCF   xDA,F
198E:  RRCF   xD9,F
1990:  RRCF   xD8,F
1992:  DECFSZ xD5,F
1994:  BRA    1986
1996:  BTFSS  xD6.7
1998:  BRA    19A0
199A:  BSF    xD7.1
199C:  BRA    1AD6
199E:  BCF    xD7.1
19A0:  BCF    xD5.0
19A2:  BSF    xD7.5
19A4:  MOVLW  01
19A6:  MOVWF  FEA
19A8:  MOVLW  D4
19AA:  MOVWF  FE9
19AC:  BRA    1AFC
19AE:  BCF    xD7.5
19B0:  BTFSC  xD6.7
19B2:  BRA    19C8
19B4:  BTFSS  xD5.0
19B6:  BRA    19DE
19B8:  RRCF   xDB,F
19BA:  RRCF   xDA,F
19BC:  RRCF   xD9,F
19BE:  RRCF   xD8,F
19C0:  INCF   00,F
19C2:  BTFSC  FD8.2
19C4:  BRA    1ACC
19C6:  BRA    19DE
19C8:  BTFSC  xDB.7
19CA:  BRA    19E4
19CC:  BCF    FD8.0
19CE:  RLCF   xD8,F
19D0:  RLCF   xD9,F
19D2:  RLCF   xDA,F
19D4:  RLCF   xDB,F
19D6:  DECF   00,F
19D8:  BTFSC  FD8.2
19DA:  BRA    1ACC
19DC:  BRA    19C8
19DE:  BSF    xD7.7
19E0:  BRA    1A34
19E2:  BCF    xD7.7
19E4:  MOVFF  1D2,1D6
19E8:  BTFSS  xD2.7
19EA:  BRA    19F0
19EC:  BSF    xDB.7
19EE:  BRA    1ABE
19F0:  BCF    xDB.7
19F2:  BRA    1ABE
19F4:  MOVFF  1D2,1DB
19F8:  BSF    xDB.7
19FA:  MOVFF  1D3,1DA
19FE:  MOVFF  1D4,1D9
1A02:  BTFSS  xD6.7
1A04:  BRA    1A0E
1A06:  BCF    xDB.7
1A08:  BSF    xD7.2
1A0A:  BRA    1AD6
1A0C:  BCF    xD7.2
1A0E:  CLRF   xD8
1A10:  BCF    xD5.0
1A12:  MOVLW  01
1A14:  MOVWF  FEA
1A16:  MOVLW  D0
1A18:  MOVWF  FE9
1A1A:  BRA    1AFC
1A1C:  BTFSC  xD6.7
1A1E:  BRA    1A58
1A20:  MOVFF  1CE,1D6
1A24:  BTFSS  xD5.0
1A26:  BRA    1A34
1A28:  RRCF   xDB,F
1A2A:  RRCF   xDA,F
1A2C:  RRCF   xD9,F
1A2E:  RRCF   xD8,F
1A30:  INCF   00,F
1A32:  BZ    1ACC
1A34:  BTFSS  xD8.7
1A36:  BRA    1A4E
1A38:  INCF   xD9,F
1A3A:  BNZ   1A4E
1A3C:  INCF   xDA,F
1A3E:  BNZ   1A4E
1A40:  INCF   xDB,F
1A42:  BNZ   1A4E
1A44:  RRCF   xDB,F
1A46:  RRCF   xDA,F
1A48:  RRCF   xD9,F
1A4A:  INCF   00,F
1A4C:  BZ    1ACC
1A4E:  BTFSC  xD7.6
1A50:  BRA    195A
1A52:  BTFSC  xD7.7
1A54:  BRA    19E2
1A56:  BRA    1A90
1A58:  MOVLW  80
1A5A:  XORWF  xDB,F
1A5C:  BTFSS  xDB.7
1A5E:  BRA    1A68
1A60:  BRA    1AD6
1A62:  MOVFF  1D2,1D6
1A66:  BRA    1A7C
1A68:  MOVFF  1CE,1D6
1A6C:  MOVF   xDB,F
1A6E:  BNZ   1A7C
1A70:  MOVF   xDA,F
1A72:  BNZ   1A7C
1A74:  MOVF   xD9,F
1A76:  BNZ   1A7C
1A78:  CLRF   00
1A7A:  BRA    1ABE
1A7C:  BTFSC  xDB.7
1A7E:  BRA    1A90
1A80:  BCF    FD8.0
1A82:  RLCF   xD8,F
1A84:  RLCF   xD9,F
1A86:  RLCF   xDA,F
1A88:  RLCF   xDB,F
1A8A:  DECFSZ 00,F
1A8C:  BRA    1A7C
1A8E:  BRA    1ACC
1A90:  BTFSS  xD6.7
1A92:  BRA    1A98
1A94:  BSF    xDB.7
1A96:  BRA    1ABE
1A98:  BCF    xDB.7
1A9A:  BRA    1ABE
1A9C:  MOVFF  1D1,00
1AA0:  MOVFF  1D2,1DB
1AA4:  MOVFF  1D3,1DA
1AA8:  MOVFF  1D4,1D9
1AAC:  BRA    1ABE
1AAE:  MOVFF  1CD,00
1AB2:  MOVFF  1CE,1DB
1AB6:  MOVFF  1CF,1DA
1ABA:  MOVFF  1D0,1D9
1ABE:  MOVFF  1DB,01
1AC2:  MOVFF  1DA,02
1AC6:  MOVFF  1D9,03
1ACA:  BRA    1B34
1ACC:  CLRF   00
1ACE:  CLRF   01
1AD0:  CLRF   02
1AD2:  CLRF   03
1AD4:  BRA    1B34
1AD6:  CLRF   xD8
1AD8:  COMF   xD9,F
1ADA:  COMF   xDA,F
1ADC:  COMF   xDB,F
1ADE:  COMF   xD8,F
1AE0:  INCF   xD8,F
1AE2:  BNZ   1AEE
1AE4:  INCF   xD9,F
1AE6:  BNZ   1AEE
1AE8:  INCF   xDA,F
1AEA:  BNZ   1AEE
1AEC:  INCF   xDB,F
1AEE:  BTFSC  xD7.0
1AF0:  BRA    1916
1AF2:  BTFSC  xD7.1
1AF4:  BRA    199E
1AF6:  BTFSC  xD7.2
1AF8:  BRA    1A0C
1AFA:  BRA    1A62
1AFC:  MOVF   FEF,W
1AFE:  ADDWF  xD9,F
1B00:  BNC   1B0C
1B02:  INCF   xDA,F
1B04:  BNZ   1B0C
1B06:  INCF   xDB,F
1B08:  BTFSC  FD8.2
1B0A:  BSF    xD5.0
1B0C:  MOVF   FED,F
1B0E:  MOVF   FEF,W
1B10:  ADDWF  xDA,F
1B12:  BNC   1B1A
1B14:  INCF   xDB,F
1B16:  BTFSC  FD8.2
1B18:  BSF    xD5.0
1B1A:  MOVF   FED,F
1B1C:  MOVF   FEF,W
1B1E:  BTFSC  FEF.7
1B20:  BRA    1B24
1B22:  XORLW  80
1B24:  ADDWF  xDB,F
1B26:  BTFSC  FD8.0
1B28:  BSF    xD5.0
1B2A:  BTFSC  xD7.4
1B2C:  BRA    1926
1B2E:  BTFSC  xD7.5
1B30:  BRA    19AE
1B32:  BRA    1A1C
1B34:  MOVLB  0
1B36:  RETURN 0
1B38:  MOVFF  F4,FEA
1B3C:  MOVFF  F3,FE9
1B40:  MOVLB  1
1B42:  MOVFF  1DA,FEF
1B46:  INCF   FE9,F
1B48:  BTFSC  FD8.2
1B4A:  INCF   FEA,F
1B4C:  CLRF   FEF
1B4E:  MOVLB  0
1B50:  INCF   xF3,F
1B52:  BTFSC  FD8.2
1B54:  INCF   xF4,F
1B56:  RETURN 0
1B58:  TBLRD*+
1B5A:  MOVFF  FF6,1CE
1B5E:  MOVFF  FF7,1CF
1B62:  MOVFF  FF5,1DA
1B66:  RCALL  1B38
1B68:  MOVFF  1CE,FF6
1B6C:  MOVFF  1CF,FF7
1B70:  MOVLB  1
1B72:  DECFSZ xCD,F
1B74:  BRA    1B78
1B76:  BRA    1B7C
1B78:  MOVLB  0
1B7A:  BRA    1B58
1B7C:  MOVLB  0
1B7E:  RETURN 0
1B80:  MOVFF  FEA,1D5
1B84:  MOVFF  FE9,1D4
1B88:  MOVLB  1
1B8A:  SWAPF  xCE,W
1B8C:  IORLW  F0
1B8E:  MOVWF  xD0
1B90:  ADDWF  xD0,F
1B92:  ADDLW  E2
1B94:  MOVWF  xD1
1B96:  ADDLW  32
1B98:  MOVWF  xD3
1B9A:  MOVF   xCE,W
1B9C:  ANDLW  0F
1B9E:  ADDWF  xD1,F
1BA0:  ADDWF  xD1,F
1BA2:  ADDWF  xD3,F
1BA4:  ADDLW  E9
1BA6:  MOVWF  xD2
1BA8:  ADDWF  xD2,F
1BAA:  ADDWF  xD2,F
1BAC:  SWAPF  xCD,W
1BAE:  ANDLW  0F
1BB0:  ADDWF  xD2,F
1BB2:  ADDWF  xD3,F
1BB4:  RLCF   xD2,F
1BB6:  RLCF   xD3,F
1BB8:  COMF   xD3,F
1BBA:  RLCF   xD3,F
1BBC:  MOVF   xCD,W
1BBE:  ANDLW  0F
1BC0:  ADDWF  xD3,F
1BC2:  RLCF   xD0,F
1BC4:  MOVLW  07
1BC6:  MOVWF  xCF
1BC8:  MOVLW  0A
1BCA:  DECF   xD2,F
1BCC:  ADDWF  xD3,F
1BCE:  BNC   1BCA
1BD0:  DECF   xD1,F
1BD2:  ADDWF  xD2,F
1BD4:  BNC   1BD0
1BD6:  DECF   xD0,F
1BD8:  ADDWF  xD1,F
1BDA:  BNC   1BD6
1BDC:  DECF   xCF,F
1BDE:  ADDWF  xD0,F
1BE0:  BNC   1BDC
1BE2:  MOVLW  01
1BE4:  MOVWF  FEA
1BE6:  MOVLW  CF
1BE8:  MOVWF  FE9
1BEA:  MOVLW  07
1BEC:  ANDWF  xD4,W
1BEE:  BCF    xD4.6
1BF0:  ADDWF  FE9,F
1BF2:  MOVLW  D3
1BF4:  SUBWF  FE9,W
1BF6:  BTFSC  FD8.2
1BF8:  BSF    xD4.6
1BFA:  MOVF   FEF,W
1BFC:  MOVWF  00
1BFE:  BNZ   1C10
1C00:  BTFSC  xD4.6
1C02:  BRA    1C10
1C04:  BTFSC  xD4.4
1C06:  BRA    1C32
1C08:  BTFSC  xD4.3
1C0A:  BRA    1C10
1C0C:  MOVLW  20
1C0E:  BRA    1C16
1C10:  BSF    xD4.3
1C12:  BCF    xD4.4
1C14:  MOVLW  30
1C16:  ADDWF  00,F
1C18:  MOVFF  FEA,1CE
1C1C:  MOVFF  FE9,1CD
1C20:  MOVFF  00,1DA
1C24:  MOVLB  0
1C26:  RCALL  1B38
1C28:  MOVFF  1CE,FEA
1C2C:  MOVFF  1CD,FE9
1C30:  MOVLB  1
1C32:  MOVF   FEE,W
1C34:  BTFSS  xD4.6
1C36:  BRA    1BF2
1C38:  MOVLB  0
1C3A:  RETURN 0
1C3C:  MOVF   FEF,F
1C3E:  BZ    1C5E
1C40:  MOVFF  FEA,1CE
1C44:  MOVFF  FE9,1CD
1C48:  MOVFF  FEF,1DA
1C4C:  RCALL  1B38
1C4E:  MOVFF  1CE,FEA
1C52:  MOVFF  1CD,FE9
1C56:  INCF   FE9,F
1C58:  BTFSC  FD8.2
1C5A:  INCF   FEA,F
1C5C:  BRA    1C3C
1C5E:  RETURN 0
1C60:  MOVLB  1
1C62:  MOVF   xDA,W
1C64:  SUBLW  B6
1C66:  MOVWF  xDA
1C68:  CLRF   03
1C6A:  MOVFF  1DB,1DE
1C6E:  BSF    xDB.7
1C70:  BCF    FD8.0
1C72:  RRCF   xDB,F
1C74:  RRCF   xDC,F
1C76:  RRCF   xDD,F
1C78:  RRCF   03,F
1C7A:  RRCF   02,F
1C7C:  RRCF   01,F
1C7E:  RRCF   00,F
1C80:  DECFSZ xDA,F
1C82:  BRA    1C70
1C84:  BTFSS  xDE.7
1C86:  BRA    1C9E
1C88:  COMF   00,F
1C8A:  COMF   01,F
1C8C:  COMF   02,F
1C8E:  COMF   03,F
1C90:  INCF   00,F
1C92:  BTFSC  FD8.2
1C94:  INCF   01,F
1C96:  BTFSC  FD8.2
1C98:  INCF   02,F
1C9A:  BTFSC  FD8.2
1C9C:  INCF   03,F
1C9E:  MOVLB  0
1CA0:  GOTO   1CFA (RETURN)
1CA4:  MOVF   FE9,W
1CA6:  MOVLB  1
1CA8:  MOVWF  xD2
1CAA:  MOVF   xD1,W
1CAC:  MOVWF  xD4
1CAE:  BZ    1CE6
1CB0:  MOVFF  1D0,1DD
1CB4:  MOVFF  1CF,1DC
1CB8:  MOVFF  1CE,1DB
1CBC:  MOVFF  1CD,1DA
1CC0:  CLRF   xE1
1CC2:  CLRF   xE0
1CC4:  MOVLW  20
1CC6:  MOVWF  xDF
1CC8:  MOVLW  82
1CCA:  MOVWF  xDE
1CCC:  MOVLB  0
1CCE:  RCALL  1630
1CD0:  MOVFF  03,1D0
1CD4:  MOVFF  02,1CF
1CD8:  MOVFF  01,1CE
1CDC:  MOVFF  00,1CD
1CE0:  MOVLB  1
1CE2:  DECFSZ xD4,F
1CE4:  BRA    1CB0
1CE6:  MOVFF  1D0,1DD
1CEA:  MOVFF  1CF,1DC
1CEE:  MOVFF  1CE,1DB
1CF2:  MOVFF  1CD,1DA
1CF6:  MOVLB  0
1CF8:  BRA    1C60
1CFA:  MOVFF  03,1D0
1CFE:  MOVFF  02,1CF
1D02:  MOVFF  01,1CE
1D06:  MOVFF  00,1CD
1D0A:  MOVLB  1
1D0C:  BTFSS  xD0.7
1D0E:  BRA    1D2A
1D10:  DECF   xD2,F
1D12:  BSF    xD2.5
1D14:  COMF   xCD,F
1D16:  COMF   xCE,F
1D18:  COMF   xCF,F
1D1A:  COMF   xD0,F
1D1C:  INCF   xCD,F
1D1E:  BTFSC  FD8.2
1D20:  INCF   xCE,F
1D22:  BTFSC  FD8.2
1D24:  INCF   xCF,F
1D26:  BTFSC  FD8.2
1D28:  INCF   xD0,F
1D2A:  MOVLW  3B
1D2C:  MOVWF  xD9
1D2E:  MOVLW  9A
1D30:  MOVWF  xD8
1D32:  MOVLW  CA
1D34:  MOVWF  xD7
1D36:  CLRF   xD6
1D38:  MOVLW  0A
1D3A:  MOVWF  xD4
1D3C:  MOVF   xD1,W
1D3E:  BTFSC  FD8.2
1D40:  INCF   xD2,F
1D42:  BSF    FD8.1
1D44:  MOVLW  01
1D46:  MOVWF  FEA
1D48:  MOVLW  CD
1D4A:  MOVWF  FE9
1D4C:  MOVFF  1D0,1DD
1D50:  MOVFF  1CF,1DC
1D54:  MOVFF  1CE,1DB
1D58:  MOVFF  1CD,1DA
1D5C:  MOVFF  1D9,1E1
1D60:  MOVFF  1D8,1E0
1D64:  MOVFF  1D7,1DF
1D68:  MOVFF  1D6,1DE
1D6C:  MOVLB  0
1D6E:  CALL   0A9A
1D72:  MOVF   01,W
1D74:  MOVF   00,F
1D76:  BNZ   1D9E
1D78:  MOVLB  1
1D7A:  INCF   xD1,W
1D7C:  SUBWF  xD4,W
1D7E:  BTFSS  FD8.2
1D80:  BRA    1D86
1D82:  MOVLB  0
1D84:  BRA    1D9E
1D86:  MOVF   xD2,W
1D88:  BZ    1DA4
1D8A:  ANDLW  0F
1D8C:  SUBWF  xD4,W
1D8E:  BZ    1D92
1D90:  BC    1E12
1D92:  BTFSC  xD2.7
1D94:  BRA    1E12
1D96:  BTFSC  xD2.6
1D98:  BRA    1DA4
1D9A:  MOVLW  20
1D9C:  BRA    1E06
1D9E:  MOVLW  20
1DA0:  MOVLB  1
1DA2:  ANDWF  xD2,F
1DA4:  BTFSS  xD2.5
1DA6:  BRA    1DC4
1DA8:  BCF    xD2.5
1DAA:  MOVF   xD1,W
1DAC:  BTFSS  FD8.2
1DAE:  DECF   xD2,F
1DB0:  MOVF   00,W
1DB2:  MOVWF  xD2
1DB4:  MOVLW  2D
1DB6:  MOVWF  xDA
1DB8:  MOVLB  0
1DBA:  RCALL  1B38
1DBC:  MOVLB  1
1DBE:  MOVF   xD2,W
1DC0:  MOVWF  00
1DC2:  CLRF   xD2
1DC4:  MOVF   xD1,W
1DC6:  SUBWF  xD4,W
1DC8:  BNZ   1DE2
1DCA:  MOVF   00,W
1DCC:  MOVWF  xD2
1DCE:  MOVLW  2E
1DD0:  MOVWF  xDA
1DD2:  MOVLB  0
1DD4:  RCALL  1B38
1DD6:  MOVLB  1
1DD8:  MOVF   xD2,W
1DDA:  MOVWF  00
1DDC:  MOVLW  20
1DDE:  ANDWF  xD2,F
1DE0:  MOVLW  00
1DE2:  MOVLW  30
1DE4:  BTFSS  xD2.5
1DE6:  BRA    1E06
1DE8:  BCF    xD2.5
1DEA:  MOVF   xD1,W
1DEC:  BTFSS  FD8.2
1DEE:  DECF   xD2,F
1DF0:  MOVF   00,W
1DF2:  MOVWF  xD2
1DF4:  MOVLW  2D
1DF6:  MOVWF  xDA
1DF8:  MOVLB  0
1DFA:  RCALL  1B38
1DFC:  MOVLB  1
1DFE:  MOVF   xD2,W
1E00:  MOVWF  00
1E02:  CLRF   xD2
1E04:  MOVLW  30
1E06:  ADDWF  00,F
1E08:  MOVFF  00,1DA
1E0C:  MOVLB  0
1E0E:  RCALL  1B38
1E10:  MOVLB  1
1E12:  BCF    FD8.1
1E14:  MOVFF  1D9,1DD
1E18:  MOVFF  1D8,1DC
1E1C:  MOVFF  1D7,1DB
1E20:  MOVFF  1D6,1DA
1E24:  CLRF   xE1
1E26:  CLRF   xE0
1E28:  CLRF   xDF
1E2A:  MOVLW  0A
1E2C:  MOVWF  xDE
1E2E:  MOVLB  0
1E30:  CALL   0A9A
1E34:  MOVFF  03,1D9
1E38:  MOVFF  02,1D8
1E3C:  MOVFF  01,1D7
1E40:  MOVFF  00,1D6
1E44:  MOVLB  1
1E46:  DECFSZ xD4,F
1E48:  BRA    1D42
1E4A:  MOVLB  0
1E4C:  RETURN 0
1E4E:  MOVLB  1
1E50:  MOVF   xD0,W
1E52:  CLRF   01
1E54:  SUBWF  xCF,W
1E56:  BC    1E5E
1E58:  MOVFF  1CF,00
1E5C:  BRA    1E76
1E5E:  CLRF   00
1E60:  MOVLW  08
1E62:  MOVWF  xD1
1E64:  RLCF   xCF,F
1E66:  RLCF   00,F
1E68:  MOVF   xD0,W
1E6A:  SUBWF  00,W
1E6C:  BTFSC  FD8.0
1E6E:  MOVWF  00
1E70:  RLCF   01,F
1E72:  DECFSZ xD1,F
1E74:  BRA    1E64
1E76:  MOVLB  0
1E78:  RETURN 0
1E7A:  MOVF   01,W
1E7C:  MOVFF  1CD,1CF
1E80:  MOVLW  64
1E82:  MOVLB  1
1E84:  MOVWF  xD0
1E86:  MOVLB  0
1E88:  RCALL  1E4E
1E8A:  MOVFF  00,1CD
1E8E:  MOVF   01,W
1E90:  MOVLW  30
1E92:  BNZ   1EA4
1E94:  MOVLB  1
1E96:  BTFSS  xCE.1
1E98:  BRA    1EB8
1E9A:  BTFSC  xCE.3
1E9C:  BRA    1EB8
1E9E:  BTFSC  xCE.4
1EA0:  MOVLW  20
1EA2:  BRA    1EAC
1EA4:  MOVLB  1
1EA6:  BCF    xCE.3
1EA8:  BCF    xCE.4
1EAA:  BSF    xCE.0
1EAC:  ADDWF  01,F
1EAE:  MOVFF  01,1DA
1EB2:  MOVLB  0
1EB4:  RCALL  1B38
1EB6:  MOVLB  1
1EB8:  MOVFF  1CD,1CF
1EBC:  MOVLW  0A
1EBE:  MOVWF  xD0
1EC0:  MOVLB  0
1EC2:  RCALL  1E4E
1EC4:  MOVFF  00,1CD
1EC8:  MOVF   01,W
1ECA:  MOVLW  30
1ECC:  BNZ   1EDE
1ECE:  MOVLB  1
1ED0:  BTFSC  xCE.3
1ED2:  BRA    1EE8
1ED4:  BTFSS  xCE.0
1ED6:  BRA    1EE8
1ED8:  BTFSC  xCE.4
1EDA:  MOVLW  20
1EDC:  MOVLB  0
1EDE:  ADDWF  01,F
1EE0:  MOVFF  01,1DA
1EE4:  RCALL  1B38
1EE6:  MOVLB  1
1EE8:  MOVLW  30
1EEA:  ADDWF  xCD,F
1EEC:  MOVFF  1CD,1DA
1EF0:  MOVLB  0
1EF2:  RCALL  1B38
1EF4:  GOTO   2492 (RETURN)
1EF8:  TBLRD*+
1EFA:  MOVF   FF5,F
1EFC:  BZ    1F16
1EFE:  MOVFF  FF6,1CD
1F02:  MOVFF  FF7,1CE
1F06:  MOVFF  FF5,1DA
1F0A:  RCALL  1B38
1F0C:  MOVFF  1CD,FF6
1F10:  MOVFF  1CE,FF7
1F14:  BRA    1EF8
1F16:  GOTO   24B0 (RETURN)
*
2B54:  TBLRD*+
2B56:  MOVF   FF5,F
2B58:  BZ    2B72
2B5A:  MOVFF  FF6,13D
2B5E:  MOVFF  FF7,13E
2B62:  MOVFF  FF5,13F
2B66:  BRA    2B0E
2B68:  MOVFF  13D,FF6
2B6C:  MOVFF  13E,FF7
2B70:  BRA    2B54
2B72:  GOTO   34EE (RETURN)
*
3698:  MOVFF  FF2,0D
369C:  BCF    FF2.7
369E:  ADDWF  FE8,W
36A0:  CLRF   FF7
36A2:  RLCF   FF7,F
36A4:  ADDLW  BD
36A6:  MOVWF  FF6
36A8:  MOVLW  36
36AA:  ADDWFC FF7,F
36AC:  TBLRD*-
36AE:  MOVF   FF5,W
36B0:  MOVWF  FFA
36B2:  TBLRD*
36B4:  MOVF   FF5,W
36B6:  BTFSC  0D.7
36B8:  BSF    FF2.7
36BA:  MOVWF  FF9
36BC:  DATA 0A,35
36BE:  DATA 10,35
36C0:  DATA 7E,35
36C2:  DATA 94,36
....................  
.................... #list 
....................  
.................... #device adc=10 
.................... #device pass_strings=in_ram 
....................  
.................... #FUSES NOWDT                   //No Watch Dog Timer 
.................... #FUSES WDT128                  //Watch Dog Timer uses 1:128 Postscale 
.................... #FUSES INTRC_IO                //Internal RC Osc, no CLKOUT 
.................... #FUSES NOBROWNOUT              //No brownout reset 
.................... #FUSES WDT_SW                  //No Watch Dog Timer, enabled in Software 
.................... #FUSES NOLVP                   //No low voltage prgming, B3(PIC16) or B5(PIC18) used for I/O 
.................... #FUSES NOPUT 
.................... #FUSES NOXINST                 //Extended set extension and Indexed Addressing mode disabled (Legacy mode) 
....................  
.................... #use delay(int=16000000, restart_wdt) 
*
0846:  MOVLW  01
0848:  MOVWF  FEA
084A:  MOVLW  09
084C:  MOVWF  FE9
084E:  MOVF   FEF,W
0850:  BZ    0874
0852:  MOVLW  05
0854:  MOVWF  01
0856:  MOVLW  BF
0858:  MOVWF  00
085A:  CLRWDT
085C:  DECFSZ 00,F
085E:  BRA    085A
0860:  DECFSZ 01,F
0862:  BRA    0856
0864:  MOVLW  2E
0866:  MOVWF  00
0868:  DECFSZ 00,F
086A:  BRA    0868
086C:  NOP   
086E:  CLRWDT
0870:  DECFSZ FEF,F
0872:  BRA    0852
0874:  RETURN 0
0876:  MOVLW  04
0878:  MOVLB  1
087A:  SUBWF  xD3,F
087C:  BNC   0892
087E:  MOVLW  01
0880:  MOVWF  FEA
0882:  MOVLW  D3
0884:  MOVWF  FE9
0886:  MOVF   FEF,W
0888:  BZ    0892
088A:  BRA    088E
088C:  CLRWDT
088E:  DECFSZ FEF,F
0890:  BRA    088C
0892:  MOVLB  0
0894:  RETURN 0
.................... #use rs232(baud=38400,parity=N,xmit=PIN_C6,rcv=PIN_C7,bits=8,stream=UART_HOST) 
.................... #use rs232(baud=38400,parity=N,xmit=PIN_D7,rcv=PIN_D6,bits=8,stream=UART_CPLD)	//uart CPLD  
*
2B0E:  BCF    F95.7
2B10:  BCF    F8C.7
2B12:  MOVLW  08
2B14:  MOVWF  01
2B16:  BRA    2B18
2B18:  NOP   
2B1A:  BSF    01.7
2B1C:  BRA    2B3E
2B1E:  BCF    01.7
2B20:  MOVLB  1
2B22:  RRCF   x3F,F
2B24:  MOVLB  0
2B26:  BTFSC  FD8.0
2B28:  BSF    F8C.7
2B2A:  BTFSS  FD8.0
2B2C:  BCF    F8C.7
2B2E:  BSF    01.6
2B30:  BRA    2B3E
2B32:  BCF    01.6
2B34:  DECFSZ 01,F
2B36:  BRA    2B20
2B38:  BRA    2B3A
2B3A:  NOP   
2B3C:  BSF    F8C.7
2B3E:  MOVLW  1C
2B40:  MOVWF  FE9
2B42:  DECFSZ FE9,F
2B44:  BRA    2B42
2B46:  BRA    2B48
2B48:  BTFSC  01.7
2B4A:  BRA    2B1E
2B4C:  BTFSC  01.6
2B4E:  BRA    2B32
2B50:  GOTO   2B68 (RETURN)
....................  
.................... #define UINT  unsigned int16 
.................... #define SINT  signed int16 
.................... #define UCHAR int8 
.................... #define ICHAR signed int8 
.................... #define bit   int1 
.................... #define ULONG int32 
.................... #define ILONG signed int32 
....................  
.................... #opt 9 
....................  
.................... #use fast_io(a) 
.................... #use fast_io(b) 
.................... #use fast_io(c) 
.................... #use fast_io(d) 
.................... #use fast_io(e) 
....................  
....................  
....................  
.................... #include <ctype.h> 
.................... //////////////////////////////////////////////////////////////////////////// 
.................... ////        (C) Copyright 1996,2003 Custom Computer Services            //// 
.................... //// This source code may only be used by licensed users of the CCS C   //// 
.................... //// compiler.  This source code may only be distributed to other       //// 
.................... //// licensed users of the CCS C compiler.  No other use, reproduction  //// 
.................... //// or distribution is permitted without written permission.           //// 
.................... //// Derivative programs created using this software in object code     //// 
.................... //// form are not restricted in any way.                                //// 
.................... //////////////////////////////////////////////////////////////////////////// 
....................  
.................... #ifndef _CTYPE 
.................... #define _CTYPE 
....................  
.................... #define islower(x)  isamong(x,"abcdefghijklmnopqrstuvwxyz") 
.................... #define isupper(x)  isamong(x,"ABCDEFGHIJKLMNOPQRSTUVWXYZ") 
.................... #define isalnum(x)  isamong(x,"0123456789ABCDEFGHIJKLMNOPQRSTUVWXYZabcdefghijklmnopqrstuvwxyz") 
.................... #define isalpha(x)  isamong(x,"ABCDEFGHIJKLMNOPQRSTUVWXYZabcdefghijklmnopqrstuvwxyz") 
.................... #define isdigit(x)  isamong(x,"0123456789") 
.................... #define isspace(x)  ((x)==' ') 
.................... #define isxdigit(x) isamong(x,"0123456789ABCDEFabcdef") 
.................... #define iscntrl(x)  ((x)<' ') 
.................... #define isprint(x)  ((x)>=' ') 
.................... #define isgraph(x)  ((x)>' ') 
.................... #define ispunct(x)  (((x)>' ')&&!isalnum(x)) 
....................  
.................... #endif 
....................  
....................  
.................... #include "PIC18F45K22_registers.h" 
.................... #byte TOSU = 0xFFF 
.................... #word TOS = 0xFFE 
.................... #byte STKPTR = 0xFFC 
.................... #bit    STKPTR0 = STKPTR.0 
.................... #bit    STKPTR1 = STKPTR.1 
.................... #bit    STKPTR2 = STKPTR.2 
.................... #bit    STKPTR3 = STKPTR.3 
.................... #bit    STKPTR4 = STKPTR.4 
.................... #bit    STKUNF = STKPTR.6 
.................... #bit    STKFUL = STKPTR.7 
.................... #byte PCLATU = 0xFFB 
.................... #byte PCLATH = 0xFFA 
.................... #byte PCL = 0xFF9 
.................... #byte TBLPTRU = 0xFF8 
.................... #word TBLPTR = 0xFF7 
.................... #byte TABLAT = 0xFF5 
.................... #word PROD = 0xFF4 
.................... #byte INTCON = 0xFF2 
.................... #bit    RBIF = INTCON.0 
.................... #bit    INT0IF = INTCON.1 
.................... #bit    TMR0IF = INTCON.2 
.................... #bit    RBIE = INTCON.3 
.................... #bit    INT0IE = INTCON.4 
.................... #bit    TMR0IE = INTCON.5 
.................... #bit    PEIE_GIEL = INTCON.6 
.................... #bit    GIE_GIEH = INTCON.7 
.................... #byte INTCON2 = 0xFF1 
.................... #bit    RBIP = INTCON2.0 
.................... #bit    TMR0IP = INTCON2.2 
.................... #bit    INTEDG2 = INTCON2.4 
.................... #bit    INTEDG1 = INTCON2.5 
.................... #bit    INTEDG0 = INTCON2.6 
.................... #bit    RBPU = INTCON2.7 
.................... #byte INTCON3 = 0xFF0 
.................... #bit    INT1IF = INTCON3.0 
.................... #bit    INT2IF = INTCON3.1 
.................... #bit    INT1IE = INTCON3.3 
.................... #bit    INT2IE = INTCON3.4 
.................... #bit    INT1IP = INTCON3.6 
.................... #bit    INT2IP = INTCON3.7 
.................... #byte INDF0 = 0xFEF 
.................... #byte POSTINC0 = 0xFEE 
.................... #byte POSTDEC0 = 0xFED 
.................... #byte PREINC0 = 0xFEC 
.................... #byte PLUSW0 = 0xFEB 
.................... #word FSR0 = 0xFEA 
.................... #byte WREG = 0xFE8 
.................... #byte INDF1 = 0xFE7 
.................... #byte POSTINC1 = 0xFE6 
.................... #byte POSTDEC1 = 0xFE5 
.................... #byte PREINC1 = 0xFE4 
.................... #byte PLUSW1 = 0xFE3 
.................... #word FSR1 = 0xFE2 
.................... #byte BSR = 0xFE0 
.................... #byte INDF2 = 0xFDF 
.................... #byte POSTINC2 = 0xFDE 
.................... #byte POSTDEC2 = 0xFDD 
.................... #byte PREINC2 = 0xFDC 
.................... #byte PLUSW2 = 0xFDB 
.................... #word FSR2 = 0xFDA 
.................... #byte STATUS = 0xFD8 
.................... #bit    C = STATUS.0 
.................... #bit    DC = STATUS.1 
.................... #bit    Z = STATUS.2 
.................... #bit    OV = STATUS.3 
.................... #bit    N = STATUS.4 
.................... #word TMR0 = 0xFD7 
.................... #byte T0CON = 0xFD5 
.................... #bit    T0PS0 = T0CON.0 
.................... #bit    T0PS1 = T0CON.1 
.................... #bit    T0PS2 = T0CON.2 
.................... #bit    PSA = T0CON.3 
.................... #bit    T0SE = T0CON.4 
.................... #bit    T0CS = T0CON.5 
.................... #bit    T08BIT = T0CON.6 
.................... #bit    TMR0ON = T0CON.7 
.................... #byte OSCCON = 0xFD3 
.................... #bit    SCS0 = OSCCON.0 
.................... #bit    SCS1 = OSCCON.1 
.................... #bit    HFIOFS = OSCCON.2 
.................... #bit    OSTS = OSCCON.3 
.................... #bit    IRCF0 = OSCCON.4 
.................... #bit    IRCF1 = OSCCON.5 
.................... #bit    IRCF2 = OSCCON.6 
.................... #bit    IDLEN = OSCCON.7 
.................... #byte OSCCON2 = 0xFD2 
.................... #bit    LFIOFS = OSCCON2.0 
.................... #bit    MFIOFS = OSCCON2.1 
.................... #bit    PRISD = OSCCON2.2 
.................... #bit    SOSCGO = OSCCON2.3 
.................... #bit    MFIOSEL = OSCCON2.4 
.................... #bit    SOSCRUN = OSCCON2.6 
.................... #bit    PLLRDY = OSCCON2.7 
.................... #byte WDTCON = 0xFD1 
.................... #bit    SWDTEN = WDTCON.0 
.................... #byte RCON = 0xFD0 
.................... #bit    BOR = RCON.0 
.................... #bit    POR = RCON.1 
.................... #bit    PD = RCON.2 
.................... #bit    TO = RCON.3 
.................... #bit    RI = RCON.4 
.................... #bit    SBOREN = RCON.6 
.................... #bit    IPEN = RCON.7 
.................... #word TMR1 = 0xFCF 
.................... #byte T1CON = 0xFCD 
.................... #bit    TMR1ON = T1CON.0 
.................... #bit    T1RD16 = T1CON.1 
.................... #bit    T1SYNC = T1CON.2 
.................... #bit    T1SOSCEN = T1CON.3 
.................... #bit    T1CKPS0 = T1CON.4 
.................... #bit    T1CKPS1 = T1CON.5 
.................... #bit    TMR1CS0 = T1CON.6 
.................... #bit    TMR1CS1 = T1CON.7 
.................... #byte T1GCON = 0xFCC 
.................... #bit    T1GSS0 = T1GCON.0 
.................... #bit    T1GSS1 = T1GCON.1 
.................... #bit    T1GVAL = T1GCON.2 
.................... #bit    T1GGO = T1GCON.3 
.................... #bit    T1GSPM = T1GCON.4 
.................... #bit    T1GTM = T1GCON.5 
.................... #bit    T1GPOL = T1GCON.6 
.................... #bit    TMR1GE = T1GCON.7 
.................... #byte SSP1CON3 = 0xFCB 
.................... #bit    DHEN = SSP1CON3.0 
.................... #bit    AHEN = SSP1CON3.1 
.................... #bit    SBCDE = SSP1CON3.2 
.................... #bit    SDAHT = SSP1CON3.3 
.................... #bit    BOEN = SSP1CON3.4 
.................... #bit    SCIE = SSP1CON3.5 
.................... #bit    PCIE = SSP1CON3.6 
.................... #bit    ACKTIM = SSP1CON3.7 
.................... #byte SSP1MSK = 0xFCA 
.................... #byte SSP1BUF = 0xFC9 
.................... #byte SSP1ADD = 0xFC8 
.................... #byte SSP1STAT = 0xFC7 
.................... #bit    BF = SSP1STAT.0 
.................... #bit    UA = SSP1STAT.1 
.................... #bit    R = SSP1STAT.2 
.................... #bit    S = SSP1STAT.3 
.................... #bit    P = SSP1STAT.4 
.................... #bit    D = SSP1STAT.5 
.................... #bit    CKE = SSP1STAT.6 
.................... #bit    SMP = SSP1STAT.7 
.................... #byte SSP1CON1 = 0xFC6 
.................... #bit    SSPM0 = SSP1CON1.0 
.................... #bit    SSPM1 = SSP1CON1.1 
.................... #bit    SSPM2 = SSP1CON1.2 
.................... #bit    SSPM3 = SSP1CON1.3 
.................... #bit    CKP = SSP1CON1.4 
.................... #bit    SSPEN = SSP1CON1.5 
.................... #bit    SSPOV = SSP1CON1.6 
.................... #bit    WCOL = SSP1CON1.7 
.................... #byte SSP1CON2 = 0xFC5 
.................... #bit    SEN = SSP1CON2.0 
.................... #bit    RSEN = SSP1CON2.1 
.................... #bit    PEN = SSP1CON2.2 
.................... #bit    RCEN = SSP1CON2.3 
.................... #bit    ACKEN = SSP1CON2.4 
.................... #bit    ACKDT = SSP1CON2.5 
.................... #bit    ACKSTAT = SSP1CON2.6 
.................... #bit    GCEN = SSP1CON2.7 
.................... #word ADRES = 0xFC4 
.................... #byte ADCON0 = 0xFC2 
.................... #bit    ADON = ADCON0.0 
.................... #bit    GO = ADCON0.1 
.................... #bit    CHS0 = ADCON0.2 
.................... #bit    CHS1 = ADCON0.3 
.................... #bit    CHS2 = ADCON0.4 
.................... #bit    CHS3 = ADCON0.5 
.................... #bit    CHS4 = ADCON0.6 
.................... #byte ADCON1 = 0xFC1 
.................... #bit    NVCFG0 = ADCON1.0 
.................... #bit    NVCFG1 = ADCON1.1 
.................... #bit    PVCFG0 = ADCON1.2 
.................... #bit    PVCFG1 = ADCON1.3 
.................... #bit    TRIGSEL = ADCON1.7 
.................... #byte ADCON2 = 0xFC0 
.................... #bit    ADCS0 = ADCON2.0 
.................... #bit    ADCS1 = ADCON2.1 
.................... #bit    ADCS2 = ADCON2.2 
*
22A4:  CLRF   xCB
22A6:  BTFSC  F83.1
22A8:  INCF   xCB,F
22AA:  CLRF   xCC
.................... #bit    ACQT0 = ADCON2.3 
.................... #bit    ACQT1 = ADCON2.4 
.................... #bit    ACQT2 = ADCON2.5 
.................... #bit    ADFM = ADCON2.7 
.................... #word CCPR1 = 0xFBF 
.................... #byte CCP1CON = 0xFBD 
.................... #bit    CCP1M0 = CCP1CON.0 
.................... #bit    CCP1M1 = CCP1CON.1 
.................... #bit    CCP1M2 = CCP1CON.2 
.................... #bit    CCP1M3 = CCP1CON.3 
.................... #bit    DC1B0 = CCP1CON.4 
.................... #bit    DC1B1 = CCP1CON.5 
.................... #bit    P1M0 = CCP1CON.6 
.................... #bit    P1M1 = CCP1CON.7 
.................... #byte TMR2 = 0xFBC 
.................... #byte PR2 = 0xFBB 
.................... #byte T2CON = 0xFBA 
.................... #bit    T2CKPS0 = T2CON.0 
.................... #bit    T2CKPS1 = T2CON.1 
.................... #bit    TMR2ON = T2CON.2 
.................... #bit    T2OUTPS0 = T2CON.3 
.................... #bit    T2OUTPS1 = T2CON.4 
.................... #bit    T2OUTPS2 = T2CON.5 
.................... #bit    T2OUTPS3 = T2CON.6 
.................... #byte PSTR1CON = 0xFB9 
.................... #bit    STR1A = PSTR1CON.0 
.................... #bit    STR1B = PSTR1CON.1 
.................... #bit    STR1C = PSTR1CON.2 
.................... #bit    STR1D = PSTR1CON.3 
.................... #bit    STR1SYNC = PSTR1CON.4 
.................... #byte BAUDCON1 = 0xFB8 
.................... #bit    ABDEN = BAUDCON1.0 
.................... #bit    WUE = BAUDCON1.1 
.................... #bit    BRG16 = BAUDCON1.3 
.................... #bit    CKTXP = BAUDCON1.4 
.................... #bit    DTRXP = BAUDCON1.5 
.................... #bit    RCIDL = BAUDCON1.6 
.................... #bit    ABDOVF = BAUDCON1.7 
.................... #byte PWM1CON = 0xFB7 
.................... #bit    P1DC0 = PWM1CON.0 
.................... #bit    P1DC1 = PWM1CON.1 
.................... #bit    P1DC2 = PWM1CON.2 
.................... #bit    P1DC3 = PWM1CON.3 
.................... #bit    P1DC4 = PWM1CON.4 
.................... #bit    P1DC5 = PWM1CON.5 
.................... #bit    P1DC6 = PWM1CON.6 
.................... #bit    P1RSEN = PWM1CON.7 
.................... #byte ECCP1AS = 0xFB6 
.................... #bit    P1SSBD0 = ECCP1AS.0 
.................... #bit    P1SSBD1 = ECCP1AS.1 
.................... #bit    P1SSAC0 = ECCP1AS.2 
.................... #bit    P1SSAC1 = ECCP1AS.3 
.................... #bit    CCP1AS0 = ECCP1AS.4 
.................... #bit    CCP1AS1 = ECCP1AS.5 
.................... #bit    CCP1AS2 = ECCP1AS.6 
.................... #bit    CCP1ASE = ECCP1AS.7 
.................... #byte T3GCON = 0xFB4 
.................... #bit    T3GSS0 = T3GCON.0 
.................... #bit    T3GSS1 = T3GCON.1 
.................... #bit    T3GVAL = T3GCON.2 
.................... #bit    T3GGO = T3GCON.3 
.................... #bit    T3GSPM = T3GCON.4 
.................... #bit    T3GTM = T3GCON.5 
.................... #bit    T3GPOL = T3GCON.6 
.................... #bit    TMR3GE = T3GCON.7 
.................... #word TMR3 = 0xFB3 
.................... #byte T3CON = 0xFB1 
.................... #bit    TMR3ON = T3CON.0 
.................... #bit    T3RD16 = T3CON.1 
.................... #bit    T3SYNC = T3CON.2 
.................... #bit    T3SOSCEN = T3CON.3 
.................... #bit    T3CKPS0 = T3CON.4 
.................... #bit    T3CKPS1 = T3CON.5 
.................... #bit    TMR3CS0 = T3CON.6 
.................... #bit    TMR3CS1 = T3CON.7 
.................... #byte SPBRGH1 = 0xFB0 
.................... #byte SPBRG1 = 0xFAF 
.................... #byte RCREG1 = 0xFAE 
.................... #byte TXREG1 = 0xFAD 
.................... #byte TXSTA1 = 0xFAC 
.................... #bit    TX9D = TXSTA1.0 
.................... #bit    TRMT = TXSTA1.1 
.................... #bit    BRGH = TXSTA1.2 
.................... #bit    SENDB = TXSTA1.3 
.................... #bit    SYNC = TXSTA1.4 
.................... #bit    TXEN = TXSTA1.5 
.................... #bit    TX9 = TXSTA1.6 
.................... #bit    CSRC = TXSTA1.7 
.................... #byte RCSTA1 = 0xFAB 
.................... #bit    RX9D = RCSTA1.0 
.................... #bit    OERR = RCSTA1.1 
.................... #bit    FERR = RCSTA1.2 
.................... #bit    ADDEN = RCSTA1.3 
.................... #bit    CREN = RCSTA1.4 
.................... #bit    SREN = RCSTA1.5 
.................... #bit    RX9 = RCSTA1.6 
.................... #bit    SPEN = RCSTA1.7 
.................... #byte EEADR = 0xFA9 
.................... #byte EEDATA = 0xFA8 
.................... #byte EECON2 = 0xFA7 
.................... #byte EECON1 = 0xFA6 
.................... #bit    RD = EECON1.0 
.................... #bit    WR = EECON1.1 
.................... #bit    WREN = EECON1.2 
.................... #bit    WRERR = EECON1.3 
.................... #bit    FREE = EECON1.4 
.................... #bit    CFGS = EECON1.6 
.................... #bit    EEPGD = EECON1.7 
.................... #byte IPR3 = 0xFA5 
.................... #bit    TMR1GIP = IPR3.0 
.................... #bit    TMR3GIP = IPR3.1 
.................... #bit    TMR5GIP = IPR3.2 
.................... #bit    CTMUIP = IPR3.3 
.................... #bit    TX2IP = IPR3.4 
.................... #bit    RC2IP = IPR3.5 
.................... #bit    BCL2IP = IPR3.6 
.................... #bit    SSP2IP = IPR3.7 
.................... #byte PIR3 = 0xFA4 
.................... #bit    TMR1GIF = PIR3.0 
.................... #bit    TMR3GIF = PIR3.1 
.................... #bit    TMR5GIF = PIR3.2 
.................... #bit    CTMUIF = PIR3.3 
.................... #bit    TX2IF = PIR3.4 
.................... #bit    RC2IF = PIR3.5 
.................... #bit    BCL2IF = PIR3.6 
.................... #bit    SSP2IF = PIR3.7 
.................... #byte PIE3 = 0xFA3 
.................... #bit    TMR1GIE = PIE3.0 
.................... #bit    TMR3GIE = PIE3.1 
.................... #bit    TMR5GIE = PIE3.2 
.................... #bit    CTMUIE = PIE3.3 
.................... #bit    TX2IE = PIE3.4 
.................... #bit    RC2IE = PIE3.5 
.................... #bit    BCL2IE = PIE3.6 
.................... #bit    SSP2IE = PIE3.7 
.................... #byte IPR2 = 0xFA2 
.................... #bit    CCP2IP = IPR2.0 
.................... #bit    TMR3IP = IPR2.1 
.................... #bit    HLVDIP = IPR2.2 
.................... #bit    BCL1IP = IPR2.3 
.................... #bit    EEIP = IPR2.4 
.................... #bit    C2IP = IPR2.5 
.................... #bit    C1IP = IPR2.6 
.................... #bit    OSCFIP = IPR2.7 
.................... #byte PIR2 = 0xFA1 
.................... #bit    CCP2IF = PIR2.0 
.................... #bit    TMR3IF = PIR2.1 
.................... #bit    HLVDIF = PIR2.2 
.................... #bit    BCL1IF = PIR2.3 
.................... #bit    EEIF = PIR2.4 
.................... #bit    C2IF = PIR2.5 
.................... #bit    C1IF = PIR2.6 
.................... #bit    OSCFIF = PIR2.7 
.................... #byte PIE2 = 0xFA0 
.................... #bit    CCP2IE = PIE2.0 
.................... #bit    TMR3IE = PIE2.1 
.................... #bit    HLVDIE = PIE2.2 
.................... #bit    BCL1IE = PIE2.3 
.................... #bit    EEIE = PIE2.4 
.................... #bit    C2IE = PIE2.5 
.................... #bit    C1IE = PIE2.6 
.................... #bit    OSCFIE = PIE2.7 
.................... #byte IPR1 = 0xF9F 
.................... #bit    TMR1IP = IPR1.0 
.................... #bit    TMR2IP = IPR1.1 
.................... #bit    CCP1IP = IPR1.2 
.................... #bit    SSP1IP = IPR1.3 
.................... #bit    TX1IP = IPR1.4 
.................... #bit    RC1IP = IPR1.5 
.................... #bit    ADIP = IPR1.6 
.................... #byte PIR1 = 0xF9E 
.................... #bit    TMR1IF = PIR1.0 
.................... #bit    TMR2IF = PIR1.1 
.................... #bit    CCP1IF = PIR1.2 
.................... #bit    SSP1IF = PIR1.3 
.................... #bit    TX1IF = PIR1.4 
.................... #bit    RC1IF = PIR1.5 
.................... #bit    ADIF = PIR1.6 
.................... #byte PIE1 = 0xF9D 
.................... #bit    TMR1IE = PIE1.0 
.................... #bit    TMR2IE = PIE1.1 
.................... #bit    CCP1IE = PIE1.2 
.................... #bit    SSP1IE = PIE1.3 
.................... #bit    TX1IE = PIE1.4 
.................... #bit    RC1IE = PIE1.5 
.................... #bit    ADIE = PIE1.6 
.................... #byte HLVDCON = 0xF9C 
.................... #bit    HLVDL0 = HLVDCON.0 
.................... #bit    HLVDL1 = HLVDCON.1 
.................... #bit    HLVDL2 = HLVDCON.2 
.................... #bit    HLVDL3 = HLVDCON.3 
.................... #bit    HLVDEN = HLVDCON.4 
.................... #bit    IRVST = HLVDCON.5 
.................... #bit    BGVST = HLVDCON.6 
.................... #bit    VDIRMAG = HLVDCON.7 
.................... #byte OSCTUNE = 0xF9B 
.................... #bit    TUN0 = OSCTUNE.0 
.................... #bit    TUN1 = OSCTUNE.1 
.................... #bit    TUN2 = OSCTUNE.2 
.................... #bit    TUN3 = OSCTUNE.3 
.................... #bit    TUN4 = OSCTUNE.4 
.................... #bit    TUN5 = OSCTUNE.5 
.................... #bit    PLLEN = OSCTUNE.6 
.................... #bit    INTSRC = OSCTUNE.7 
.................... #byte TRISE = 0xF96 
.................... #bit    TRISE0 = TRISE.0 
.................... #bit    TRISE1 = TRISE.1 
.................... #bit    TRISE2 = TRISE.2 
.................... #bit    WPUE3 = TRISE.7 
.................... #byte TRISD = 0xF95 
.................... #byte TRISC = 0xF94 
.................... #byte TRISB = 0xF93 
.................... #byte TRISA = 0xF92 
.................... #byte LATE = 0xF8D 
.................... #byte LATD = 0xF8C 
.................... #byte LATC = 0xF8B 
.................... #byte LATB = 0xF8A 
.................... #byte LATA = 0xF89 
.................... #byte PORTE = 0xF84 
.................... #byte PORTD = 0xF83 
.................... #byte PORTC = 0xF82 
.................... #byte PORTB = 0xF81 
.................... #byte PORTA = 0xF80 
.................... #byte IPR5 = 0xF7F 
.................... #bit    TMR4IP = IPR5.0 
.................... #bit    TMR5IP = IPR5.1 
.................... #bit    TMR6IP = IPR5.2 
.................... #byte PIR5 = 0xF7E 
.................... #bit    TMR4IF = PIR5.0 
.................... #bit    TMR5IF = PIR5.1 
.................... #bit    TMR6IF = PIR5.2 
.................... #byte PIE5 = 0xF7D 
.................... #bit    TMR4IE = PIE5.0 
.................... #bit    TMR5IE = PIE5.1 
.................... #bit    TMR6IE = PIE5.2 
.................... #byte IPR4 = 0xF7C 
.................... #bit    CCP3IP = IPR4.0 
.................... #bit    CCP4IP = IPR4.1 
.................... #bit    CCP5IP = IPR4.2 
.................... #byte PIR4 = 0xF7B 
.................... #bit    CCP3IF = PIR4.0 
.................... #bit    CCP4IF = PIR4.1 
.................... #bit    CCP5IF = PIR4.2 
.................... #byte PIE4 = 0xF7A 
.................... #bit    CCP3IE = PIE4.0 
.................... #bit    CCP4IE = PIE4.1 
.................... #bit    CCP5IE = PIE4.2 
.................... #byte CM1CON0 = 0xF79 
.................... #bit    C1CH0 = CM1CON0.0 
.................... #bit    C1CH1 = CM1CON0.1 
.................... #bit    C1R = CM1CON0.2 
.................... #bit    C1SP = CM1CON0.3 
.................... #bit    C1POL = CM1CON0.4 
.................... #bit    C1OE = CM1CON0.5 
.................... //#bit    C1OUT = CM1CON0.6 
.................... #bit    C1ON = CM1CON0.7 
.................... #byte CM2CON0 = 0xF78 
.................... #bit    C2CH0 = CM2CON0.0 
.................... #bit    C2CH1 = CM2CON0.1 
.................... #bit    C2R = CM2CON0.2 
.................... #bit    C2SP = CM2CON0.3 
.................... #bit    C2POL = CM2CON0.4 
.................... #bit    C2OE = CM2CON0.5 
.................... //#bit    C2OUT = CM2CON0.6 
.................... #bit    C2ON = CM2CON0.7 
.................... #byte CM2CON1 = 0xF77 
.................... #bit    C2SYNC = CM2CON1.0 
.................... #bit    C1SYNC = CM2CON1.1 
.................... #bit    C2HYS = CM2CON1.2 
.................... #bit    C1HYS = CM2CON1.3 
.................... #bit    C2RSEL = CM2CON1.4 
.................... #bit    C1RSEL = CM2CON1.5 
.................... #bit    MC2OUT = CM2CON1.6 
.................... #bit    MC1OUT = CM2CON1.7 
.................... #byte SPBRGH2 = 0xF76 
.................... #byte SPBRG2 = 0xF75 
.................... #byte RCREG2 = 0xF74 
.................... #byte TXREG2 = 0xF73 
.................... #byte TXSTA2 = 0xF72 
.................... #bit    U2TX9D = TXSTA2.0 
.................... #bit    U2TRMT = TXSTA2.1 
.................... #bit    U2BRGH = TXSTA2.2 
.................... #bit    U2SENDB = TXSTA2.3 
.................... #bit    U2SYNC = TXSTA2.4 
.................... #bit    U2TXEN = TXSTA2.5 
.................... #bit    U2TX9 = TXSTA2.6 
.................... #bit    U2CSRC = TXSTA2.7 
.................... #byte RCSTA2 = 0xF71 
.................... #bit    U1RX9D = RCSTA2.0 
.................... #bit    U1OERR = RCSTA2.1 
.................... #bit    U1FERR = RCSTA2.2 
.................... #bit    U1ADDEN = RCSTA2.3 
.................... #bit    U1CREN = RCSTA2.4 
.................... #bit    U1SREN = RCSTA2.5 
.................... #bit    U1RX9 = RCSTA2.6 
.................... #bit    U1SPEN = RCSTA2.7 
.................... #byte BAUDCON2 = 0xF70 
.................... #bit    U1ABDEN = BAUDCON2.0 
.................... #bit    U1WUE = BAUDCON2.1 
.................... #bit    U1BRG16 = BAUDCON2.3 
.................... #bit    U1CKTXP = BAUDCON2.4 
.................... #bit    U1DTRXP = BAUDCON2.5 
.................... #bit    U1RCIDL = BAUDCON2.6 
.................... #bit    U1ABDOVF = BAUDCON2.7 
.................... #byte SSP2BUF = 0xF6F 
.................... #byte SSP2ADD = 0xF6E 
.................... #byte SSP2STAT = 0xF6D 
.................... #bit    SP2BF = SSP2STAT.0 
.................... #bit    SP2UA = SSP2STAT.1 
.................... #bit    SP2R = SSP2STAT.2 
.................... #bit    SP2S = SSP2STAT.3 
.................... #bit    SP2P = SSP2STAT.4 
.................... #bit    SP2D = SSP2STAT.5 
.................... #bit    SP2CKE = SSP2STAT.6 
.................... #bit    SP2SMP = SSP2STAT.7 
.................... #byte SSP2CON1 = 0xF6C 
.................... #bit    SP2SSPM0 = SSP2CON1.0 
.................... #bit    SP2SSPM1 = SSP2CON1.1 
.................... #bit    SP2SSPM2 = SSP2CON1.2 
.................... #bit    SP2SSPM3 = SSP2CON1.3 
.................... #bit    SP2CKP = SSP2CON1.4 
.................... #bit    SP2SSPEN = SSP2CON1.5 
.................... #bit    SP2SSPOV = SSP2CON1.6 
.................... #bit    SP2WCOL = SSP2CON1.7 
.................... #byte SSP2CON2 = 0xF6B 
.................... #bit    SP2SEN = SSP2CON2.0 
.................... #bit    SP2RSEN = SSP2CON2.1 
.................... #bit    SP2PEN = SSP2CON2.2 
.................... #bit    SP2RCEN = SSP2CON2.3 
.................... #bit    SP2ACKEN = SSP2CON2.4 
.................... #bit    SP2ACKDT = SSP2CON2.5 
.................... #bit    SP2ACKSTAT = SSP2CON2.6 
.................... #bit    SP2GCEN = SSP2CON2.7 
.................... #byte SSP2MSK = 0xF6A 
.................... #byte SSP2CON3 = 0xF69 
.................... #bit    SP2DHEN = SSP2CON3.0 
.................... #bit    SP2AHEN = SSP2CON3.1 
.................... #bit    SP2SBCDE = SSP2CON3.2 
.................... #bit    SP2SDAHT = SSP2CON3.3 
.................... #bit    SP2BOEN = SSP2CON3.4 
.................... #bit    SP2SCIE = SSP2CON3.5 
.................... #bit    SP2PCIE = SSP2CON3.6 
.................... #bit    SP2ACKTIM = SSP2CON3.7 
.................... #word CCPR2 = 0xF68 
.................... #byte CCP2CON = 0xF66 
.................... #bit    CCP2M0 = CCP2CON.0 
.................... #bit    CCP2M1 = CCP2CON.1 
.................... #bit    CCP2M2 = CCP2CON.2 
.................... #bit    CCP2M3 = CCP2CON.3 
.................... #bit    CCP2DC2B0 = CCP2CON.4 
.................... #bit    CCP2DC2B1 = CCP2CON.5 
.................... #bit    CCP2P2M0 = CCP2CON.6 
.................... #bit    CCP2P2M1 = CCP2CON.7 
.................... #byte PWM2CON = 0xF65 
.................... #bit    P2DC0 = PWM2CON.0 
.................... #bit    P2DC1 = PWM2CON.1 
.................... #bit    P2DC2 = PWM2CON.2 
.................... #bit    P2DC3 = PWM2CON.3 
.................... #bit    P2DC4 = PWM2CON.4 
.................... #bit    P2DC5 = PWM2CON.5 
.................... #bit    P2DC6 = PWM2CON.6 
.................... #bit    P2RSEN = PWM2CON.7 
.................... #byte ECCP2AS = 0xF64 
.................... #bit    P2SSBD0 = ECCP2AS.0 
.................... #bit    P2SSBD1 = ECCP2AS.1 
.................... #bit    P2SSAC0 = ECCP2AS.2 
.................... #bit    P2SSAC1 = ECCP2AS.3 
.................... #bit    CCP2AS0 = ECCP2AS.4 
.................... #bit    CCP2AS1 = ECCP2AS.5 
.................... #bit    CCP2AS2 = ECCP2AS.6 
.................... #bit    CCP2ASE = ECCP2AS.7 
.................... #byte PSTR2CON = 0xF63 
.................... #bit    STR2A = PSTR2CON.0 
.................... #bit    STR2B = PSTR2CON.1 
.................... #bit    STR2C = PSTR2CON.2 
.................... #bit    STR2D = PSTR2CON.3 
.................... #bit    STR2SYNC = PSTR2CON.4 
.................... #byte IOCB = 0xF62 
.................... #bit    IOCB4 = IOCB.4 
.................... #bit    IOCB5 = IOCB.5 
.................... #bit    IOCB6 = IOCB.6 
.................... #bit    IOCB7 = IOCB.7 
.................... #byte WPUB = 0xF61 
.................... #byte SLRCON = 0xF60 
.................... #bit    SLRA = SLRCON.0 
.................... #bit    SLRB = SLRCON.1 
.................... #bit    SLRC = SLRCON.2 
.................... #bit    SLRD = SLRCON.3 
.................... #bit    SLRE = SLRCON.4 
.................... #word CCPR3 = 0xF5F 
.................... #byte CCP3CON = 0xF5D 
.................... #bit    CCP3M0 = CCP3CON.0 
.................... #bit    CCP3M1 = CCP3CON.1 
.................... #bit    CCP3M2 = CCP3CON.2 
.................... #bit    CCP3M3 = CCP3CON.3 
.................... #bit    CCP3DC3B0 = CCP3CON.4 
.................... #bit    CCP3DC3B1 = CCP3CON.5 
.................... #bit    CCP3P3M0 = CCP3CON.6 
.................... #bit    CCP3P3M1 = CCP3CON.7 
.................... #byte PWM3CON = 0xF5C 
.................... #bit    P3DC0 = PWM3CON.0 
.................... #bit    P3DC1 = PWM3CON.1 
.................... #bit    P3DC2 = PWM3CON.2 
.................... #bit    P3DC3 = PWM3CON.3 
.................... #bit    P3DC4 = PWM3CON.4 
.................... #bit    P3DC5 = PWM3CON.5 
.................... #bit    P3DC6 = PWM3CON.6 
.................... #bit    P3RSEN = PWM3CON.7 
.................... #byte ECCP3AS = 0xF5B 
.................... #bit    P3SSBD0 = ECCP3AS.0 
.................... #bit    P3SSBD1 = ECCP3AS.1 
.................... #bit    P3SSAC0 = ECCP3AS.2 
.................... #bit    P3SSAC1 = ECCP3AS.3 
.................... #bit    CCP3AS0 = ECCP3AS.4 
.................... #bit    CCP3AS1 = ECCP3AS.5 
.................... #bit    CCP3AS2 = ECCP3AS.6 
.................... #bit    CCP3ASE = ECCP3AS.7 
.................... #byte PSTR3CON = 0xF5A 
.................... #bit    STR3A = PSTR3CON.0 
.................... #bit    STR3B = PSTR3CON.1 
.................... #bit    STR3C = PSTR3CON.2 
.................... #bit    STR3D = PSTR3CON.3 
.................... #bit    STR3SYNC = PSTR3CON.4 
.................... #word CCPR4 = 0xF59 
.................... #byte CCP4CON = 0xF57 
.................... #bit    CCP4M0 = CCP4CON.0 
.................... #bit    CCP4M1 = CCP4CON.1 
.................... #bit    CCP4M2 = CCP4CON.2 
.................... #bit    CCP4M3 = CCP4CON.3 
.................... #bit    CCP4DC4B0 = CCP4CON.4 
.................... #bit    CCP4DC4B1 = CCP4CON.5 
.................... #word CCPR5 = 0xF56 
.................... #byte CCP5CON = 0xF54 
.................... #bit    CCP5M0 = CCP5CON.0 
.................... #bit    CCP5M1 = CCP5CON.1 
.................... #bit    CCP5M2 = CCP5CON.2 
.................... #bit    CCP5M3 = CCP5CON.3 
.................... #bit    CCP5DC5B0 = CCP5CON.4 
.................... #bit    CCP5DC5B1 = CCP5CON.5 
.................... #byte TMR4 = 0xF53 
.................... #byte PR4 = 0xF52 
.................... #byte T4CON = 0xF51 
.................... #bit    T4CKPS0 = T4CON.0 
.................... #bit    T4CKPS1 = T4CON.1 
.................... #bit    TMR4ON = T4CON.2 
.................... #bit    T4OUTPS0 = T4CON.3 
.................... #bit    T4OUTPS1 = T4CON.4 
.................... #bit    T4OUTPS2 = T4CON.5 
.................... #bit    T4OUTPS3 = T4CON.6 
.................... #word TMR5 = 0xF50 
.................... #byte T5CON = 0xF4E 
.................... #bit    TMR5ON = T5CON.0 
.................... #bit    T5RD16 = T5CON.1 
.................... #bit    T5SYNC = T5CON.2 
.................... #bit    T5SOSCEN = T5CON.3 
.................... #bit    T5CKPS0 = T5CON.4 
.................... #bit    T5CKPS1 = T5CON.5 
.................... #bit    TMR5CS0 = T5CON.6 
.................... #bit    TMR5CS1 = T5CON.7 
.................... #byte T5GCON = 0xF4D 
.................... #bit    T5GSS0 = T5GCON.0 
.................... #bit    T5GSS1 = T5GCON.1 
.................... #bit    T5GVAL = T5GCON.2 
.................... #bit    T5GGO = T5GCON.3 
.................... #bit    T5GSPM = T5GCON.4 
.................... #bit    T5GTM = T5GCON.5 
.................... #bit    T5GPOL = T5GCON.6 
.................... #bit    TMR5GE = T5GCON.7 
.................... #byte TMR6 = 0xF4C 
.................... #byte PR6 = 0xF4B 
.................... #byte T6CON = 0xF4A 
.................... #bit    T6CKPS0 = T6CON.0 
.................... #bit    T6CKPS1 = T6CON.1 
.................... #bit    TMR6ON = T6CON.2 
.................... #bit    T6OUTPS0 = T6CON.3 
.................... #bit    T6OUTPS1 = T6CON.4 
.................... #bit    T6OUTPS2 = T6CON.5 
.................... #bit    T6OUTPS3 = T6CON.6 
.................... #byte CCPTMRS0 = 0xF49 
.................... #bit    C1TSEL0 = CCPTMRS0.0 
.................... #bit    C1TSEL1 = CCPTMRS0.1 
.................... #bit    C2TSEL0 = CCPTMRS0.3 
.................... #bit    C2TSEL1 = CCPTMRS0.4 
.................... #bit    C3TSEL0 = CCPTMRS0.6 
.................... #bit    C3TSEL1 = CCPTMRS0.7 
.................... #byte CCPTMRS1 = 0xF48 
.................... #bit    C4TSEL0 = CCPTMRS1.0 
.................... #bit    C4TSEL1 = CCPTMRS1.1 
.................... #bit    C5TSEL0 = CCPTMRS1.2 
.................... #bit    C5TSEL1 = CCPTMRS1.3 
.................... #byte SRCON0 = 0xF47 
.................... #bit    SRPR = SRCON0.0 
.................... #bit    SRPS = SRCON0.1 
.................... #bit    SRNQEN = SRCON0.2 
.................... #bit    SRQEN = SRCON0.3 
.................... #bit    SRCLK0 = SRCON0.4 
.................... #bit    SRCLK1 = SRCON0.5 
.................... #bit    SRCLK2 = SRCON0.6 
.................... #bit    SRLEN = SRCON0.7 
.................... #byte SRCON1 = 0xF46 
.................... #bit    SRRC1E = SRCON1.0 
.................... #bit    SRRC2E = SRCON1.1 
.................... #bit    SRRCKE = SRCON1.2 
.................... #bit    SRRPE = SRCON1.3 
.................... #bit    SRSC1E = SRCON1.4 
.................... #bit    SRSC2E = SRCON1.5 
.................... #bit    SRSCKE = SRCON1.6 
.................... #bit    SRSPE = SRCON1.7 
.................... #word CTMUCON = 0xF45 
.................... #byte CTMUICON = 0xF43 
.................... #bit    IRNG0 = CTMUICON.0 
.................... #bit    IRNG1 = CTMUICON.1 
.................... #bit    ITRIM0 = CTMUICON.2 
.................... #bit    ITRIM1 = CTMUICON.3 
.................... #bit    ITRIM2 = CTMUICON.4 
.................... #bit    ITRIM3 = CTMUICON.5 
.................... #bit    ITRIM4 = CTMUICON.6 
.................... #bit    ITRIM5 = CTMUICON.7 
.................... #byte VREFCON0 = 0xF42 
.................... #bit    FVRS0 = VREFCON0.4 
.................... #bit    FVRS1 = VREFCON0.5 
.................... #bit    FVRST = VREFCON0.6 
.................... #bit    FVREN = VREFCON0.7 
.................... #byte VREFCON1 = 0xF41 
.................... #bit    DACNSS = VREFCON1.0 
.................... #bit    DACPSS0 = VREFCON1.2 
.................... #bit    DACPSS1 = VREFCON1.3 
.................... #bit    DACOE = VREFCON1.5 
.................... #bit    DACLPS = VREFCON1.6 
.................... #bit    DACEN = VREFCON1.7 
.................... #byte VREFCON2 = 0xF40 
.................... #byte PMD0 = 0xF3F 
.................... #bit    TMR1MD = PMD0.0 
.................... #bit    TMR2MD = PMD0.1 
.................... #bit    TMR3MD = PMD0.2 
.................... #bit    TMR4MD = PMD0.3 
.................... #bit    TMR5MD = PMD0.4 
.................... #bit    TMR6MD = PMD0.5 
.................... #bit    UART1MD = PMD0.6 
.................... #bit    UART2MD = PMD0.7 
.................... #byte PMD1 = 0xF3E 
.................... #bit    CCP1MD = PMD1.0 
.................... #bit    CCP2MD = PMD1.1 
.................... #bit    CCP3MD = PMD1.2 
.................... #bit    CCP4MD = PMD1.3 
.................... #bit    CCP5MD = PMD1.4 
.................... #bit    MSSP1MD = PMD1.6 
.................... #bit    MSSP2MD = PMD1.7 
.................... #byte PMD2 = 0xF3D 
.................... #bit    ADCMD = PMD2.0 
.................... #bit    CMP1MD = PMD2.1 
.................... #bit    CMP2MD = PMD2.2 
.................... #bit    CTMUMD = PMD2.3 
.................... #byte ANSELE = 0xF3C 
.................... #byte ANSELD = 0xF3B 
.................... #byte ANSELC = 0xF3A 
.................... #bit    ANSC2 = ANSELC.2 
.................... #bit    ANSC3 = ANSELC.3 
.................... #bit    ANSC4 = ANSELC.4 
.................... #bit    ANSC5 = ANSELC.5 
.................... #bit    ANSC6 = ANSELC.6 
.................... #bit    ANSC7 = ANSELC.7 
.................... #byte ANSELB = 0xF39 
.................... #byte ANSELA = 0xF38 
.................... #bit    ANSA0 = ANSELA.0 
.................... #bit    ANSA1 = ANSELA.1 
.................... #bit    ANSA2 = ANSELA.2 
.................... #bit    ANSA3 = ANSELA.3 
.................... #bit    ANSA5 = ANSELA.5 
....................  
....................  
.................... #define VERSION "BA1533TX V1.0" 
.................... #define VERSION_V "V1.0" 
....................  
.................... //--------- frequency constants ----------------------------------------------- 
.................... #define FREQ_P_MULT            64L 
.................... #define FREQ_BASE         2575000L       // in KHz 
.................... #define FREQ_STEP              10L       // in KHz 
.................... #define FREQ_OSC            10000L       // in KHz 
.................... #define FREQ_MUL              100L 
.................... #define FREQ_MOD              ((FREQ_OSC / FREQ_STEP)) 
....................  
.................... #define FRQ_LO_BOT 5150 
.................... #define FRQ_LO_TOP 5250 
.................... #define FRQ_HI_BOT 5675 
.................... #define FRQ_HI_TOP 5875 
....................  
.................... //========== power ============================================================ 
.................... UINT  power_control;		//power_level,  
....................  
.................... #define A2D_POWER 5		//FFWR 
.................... #define A2D_PREV  4 
.................... #define A2D_TEMP  25 
.................... //#define A2D_VGMON 7 
.................... //#define FFWR	  5 
.................... #define A2D_FFWR2 6 
.................... #define A2D_Vdd   0 
.................... #define A2D_28v   9 
....................  
.................... //#define DAC_POS_VOLT 0 
.................... #define DAC_NEG_VOLT     2 
.................... #define DAC_PRE_AMP_POS  6  
.................... #define DAC_UP_GAI_COUNT 10 
.................... #define DAC_MONITOR_CTRL 14 
....................  
.................... #define FREQ_LOW_THRESH   22570 
.................... #define FREQ_HIGH_THRESH  23290 
....................  
.................... #define DEADBAND 6 
....................  
.................... // UINT  manual_pos = 0xFFFF; 
....................  
.................... //========== timer ============================================================ 
.................... UCHAR  TMR_1mS_Flags; 
.................... UCHAR  TMR_1mS_Count; 
.................... UCHAR  TMR_1mS_Cnt; 
.................... UCHAR  TMR_10mS_Count; 
.................... UCHAR  TMR_10mS_Flags; 
.................... UCHAR  TMR_10mS_Cnt; 
.................... UCHAR  TMR_100mS_Flags; 
.................... UCHAR  TMR_100mS_Cnt; 
.................... UCHAR  TMR_1sec_Flags; 
.................... //UCHAR  TMR_1sec_cnt; 
....................  
.................... #bit TMR_1MS_KEYPAD     = TMR_1mS_Flags.0 
.................... #bit TMR_1MS_DELAY      = TMR_1mS_Flags.1 
....................  
.................... #bit TMR_100mS_BLINK    = TMR_100mS_Flags.0 
.................... #bit TMR_100MS_COMM_TO  = TMR_100mS_Flags.1 
.................... #bit TMR_100MS_LEDS     = TMR_100mS_Flags.2 
.................... #bit TMR_100MS_POWER    = TMR_100mS_Flags.3 
....................  
.................... #bit TMR_1sec_DISP_STAT =  TMR_1sec_Flags.0 
.................... #bit TMR_1sec_RSSI      =  TMR_1sec_Flags.1 
.................... #bit TMR_1Sec_TEMP      =  TMR_1sec_Flags.2 
.................... #bit TMR_1Sec_BIT_EN    =  TMR_1sec_Flags.3 
....................  
.................... //============= I/O PIN assignments =========================================== 
....................  
.................... #define PLL1_LAT  PIN_C2 
.................... #define PLL1_CLK  PIN_C3 
.................... #define PLL1_DAT  PIN_D0 
.................... #define PLL1_LD   PIN_D1 
.................... #define PLL1_CE   PIN_C1 
....................  
.................... #define BIT_MODE_EN  PIN_C4  		// FPGA BIT_EN 
....................  
.................... #define PREAMP_EN  PIN_D2		//PS = 1 ? 1 : 0 
.................... #define PREAMP2_EN PIN_C5		//PS = 1 ? 1 : 0 
.................... #define TX_RX_INIT PIN_D3		//PS = 1 ? 1 : 0 
....................  
.................... #define CPLD_RX	  PIN_D6 
.................... #define CPLD_TX	  PIN_D7 
....................  
.................... #define LED1      PIN_C0 
.................... #define LED2      PIN_B4 
....................  
.................... ////////////////#define HILO     PIN_D2   yehuda 
.................... //#define STANDBY  PIN_B0		//was D7 changed to B0 TXRX_MCU 
.................... #define TXRX_MCU   PIN_B0 
....................  
.................... #define MET_EN   PIN_B2 
.................... #define SENS_28V PIN_B3	//sAN9   connected to ADC 
....................  
.................... #define RREV     PIN_A5 // sAN4  connected to ADC 
.................... #define FFWR1    PIN_E1 // sAN6  connected to ADC 
.................... #define FFWR2    PIN_E0 // sAN5  connected to ADC 
.................... #define MCU_3P3	 PIN_A0	// sAN0	 connected to ADC 
....................  
.................... #define TMP      PIN_D5 // sAN25 temperature connected to ADC 
.................... //#define VG_MON   PIN_E2 // sAN7 
.................... #define RF_INDENT   PIN_E2 // sAN7 
....................  
.................... #define VGMON_THRESHOLD 650 // 2.1V 
....................  
.................... #define METER_OUTPUT1  100    // 1 
.................... #define METER_OUTPUT2  16   // 11 
.................... #define METER_OUTPUT3  98   // 111  
.................... #define METER_OUTPUT4  784  // 1111 
....................  
.................... UINT power_avg[4], pavgx = 0; 
....................  
.................... //========== COM1 variables =================================================== 
.................... #define COM1_RX_LEN 32 
....................  
.................... UCHAR COM1_rcnt; 
.................... UCHAR COM1_rxi; 
.................... UCHAR COM1_rxo; 
.................... UCHAR COM1_rbuf[COM1_RX_LEN]; 
....................  
.................... #define COMM_INIT       0 
.................... #define COMM_WAIT_DLR   1 
.................... #define COMM_WAIT_CR    2 
.................... #define COMM_DELAY      3 
....................  
.................... #define WAIT_ACK_TO 20 // 200mS wait for ack 
....................  
.................... UCHAR comm_state; 
.................... UCHAR comm_ridx; 
.................... UCHAR comm_buf[80]; 
.................... UINT  comm_timeout; 
....................  
.................... //======= misc ================================================================ 
....................  
.................... //----------- setup ----------------------------------------------------------- 
.................... struct { 
....................        UCHAR power_amp; 
....................        UINT  frequency; 
....................        UINT  power_level; 
....................        UINT  negative_voltage[2]; 
....................        UINT  power_in[2];			//positive voltage 
.................... //	   UINT  monitor_ctrl[2]; 
....................        UINT  fwd_table[11][2]; 
....................        UINT  reverse; 
....................        UCHAR meter_backlight; 
....................        UINT  year; 
....................        UCHAR week; 
....................        UINT  unit_ID; 
.................... 	   //UINT  dac_val[4]; 
.................... } setup; 
....................  
.................... UINT allow_write = 0; 
....................  
.................... //========== function prototypes ============================================== 
.................... void read_setup(void); 
.................... void write_setup(void); 
.................... void update_all(void); 
.................... void init_io_ports(void); 
.................... void write_int_eeprom(UINT addr, UCHAR *data, UINT size); 
.................... void read_int_eeprom(UINT addr, UCHAR *data, UINT size); 
.................... void init_system(void); 
.................... void check_bit_mode(void); 
.................... //void meter1(void); 
.................... //void meter2(void); 
....................  
.................... //========== include source files ============================================= 
.................... #include "AD5314.c" 
....................  
.................... #define SW_SPI 
....................  
.................... #define DA2_CLK   PIN_A3 // AD5314 
.................... #define DA2_DAT   PIN_A4 
.................... #define DA2_SYN   PIN_A2 
.................... #define DA2_LAT   PIN_A1 
....................  
.................... void set_AD5314(int8 channel, int16 level) 
.................... { 
.................... 	output_low(DA2_SYN); 
*
0D5A:  BCF    F89.2
.................... 	 
.................... //	if (channel) 
.................... //    output_high(DA2_DAT);    // send to VOUTB 
.................... //	else 
.................... //    output_low(DA2_DAT);    // send to VOUTA 
.................... //channel is 4 bit wide  
.................... //bit 3 - address A1 
.................... //bit 2 - address A0 
.................... //bit 1 - if 1 normal operation, if 0 power down (PD) 
.................... //bit 0 - if 1 only address input regs updated no change in the content, if 0 all updated on complition of write 
.................... 	 
.................... 	#ifdef SW_SPI 
.................... 		if(channel & 0x08)			//send bit 15 - A1 
0D5C:  MOVLB  1
0D5E:  BTFSS  x09.3
0D60:  BRA    0D66
.................... 		output_high(DA2_DAT); 
0D62:  BSF    F89.4
0D64:  BRA    0D68
.................... 		else  
.................... 		output_low(DA2_DAT); 
0D66:  BCF    F89.4
.................... 		output_high(DA2_CLK);   
0D68:  BSF    F89.3
.................... 		delay_cycles(15); 
0D6A:  MOVLW  04
0D6C:  MOVWF  00
0D6E:  DECFSZ 00,F
0D70:  BRA    0D6E
0D72:  BRA    0D74
.................... 		output_low(DA2_CLK); 
0D74:  BCF    F89.3
.................... 		delay_cycles(15); 
0D76:  MOVLW  04
0D78:  MOVWF  00
0D7A:  DECFSZ 00,F
0D7C:  BRA    0D7A
0D7E:  BRA    0D80
.................... 		 
.................... 		if(channel & 0x04)			//send bit 14 - A0 
0D80:  BTFSS  x09.2
0D82:  BRA    0D88
.................... 		output_high(DA2_DAT); 
0D84:  BSF    F89.4
0D86:  BRA    0D8A
.................... 		else  
.................... 		output_low(DA2_DAT); 
0D88:  BCF    F89.4
.................... 		output_high(DA2_CLK); 
0D8A:  BSF    F89.3
.................... 		delay_cycles(15); 
0D8C:  MOVLW  04
0D8E:  MOVWF  00
0D90:  DECFSZ 00,F
0D92:  BRA    0D90
0D94:  BRA    0D96
.................... 		output_low(DA2_CLK); 
0D96:  BCF    F89.3
.................... 		delay_cycles(15); 
0D98:  MOVLW  04
0D9A:  MOVWF  00
0D9C:  DECFSZ 00,F
0D9E:  BRA    0D9C
0DA0:  BRA    0DA2
.................... 		 
.................... 		if(channel & 0x02)			//send bit 13 - PD - if 1 normal operation, if 0 power down (PD) 
0DA2:  BTFSS  x09.1
0DA4:  BRA    0DAA
.................... 		output_high(DA2_DAT); 
0DA6:  BSF    F89.4
0DA8:  BRA    0DAC
.................... 		else  
.................... 		output_low(DA2_DAT); 
0DAA:  BCF    F89.4
.................... 		output_high(DA2_CLK); 
0DAC:  BSF    F89.3
.................... 		delay_cycles(15); 
0DAE:  MOVLW  04
0DB0:  MOVWF  00
0DB2:  DECFSZ 00,F
0DB4:  BRA    0DB2
0DB6:  BRA    0DB8
.................... 		output_low(DA2_CLK); 
0DB8:  BCF    F89.3
.................... 		delay_cycles(15); 
0DBA:  MOVLW  04
0DBC:  MOVWF  00
0DBE:  DECFSZ 00,F
0DC0:  BRA    0DBE
0DC2:  BRA    0DC4
.................... 		 
.................... 		if(channel & 0x01)			//send bit 12 - LDAC - if 1 only address input regs updated no change in the content, if 0 all updated on complition of write 
0DC4:  BTFSS  x09.0
0DC6:  BRA    0DCC
.................... 		output_high(DA2_DAT); 
0DC8:  BSF    F89.4
0DCA:  BRA    0DCE
.................... 		else  
.................... 		output_low(DA2_DAT); 
0DCC:  BCF    F89.4
.................... 		output_high(DA2_CLK); 
0DCE:  BSF    F89.3
.................... 		delay_cycles(15); 
0DD0:  MOVLW  04
0DD2:  MOVWF  00
0DD4:  DECFSZ 00,F
0DD6:  BRA    0DD4
0DD8:  BRA    0DDA
.................... 		output_low(DA2_CLK); 
0DDA:  BCF    F89.3
.................... 		delay_cycles(15); 
0DDC:  MOVLW  04
0DDE:  MOVWF  00
0DE0:  DECFSZ 00,F
0DE2:  BRA    0DE0
0DE4:  BRA    0DE6
.................... 		 
.................... 		 
.................... 		output_high(DA2_CLK);    	//send bit 11 DATA 
0DE6:  BSF    F89.3
.................... 		if (level & 0x0200) 
0DE8:  ANDLW  00
0DEA:  MOVWF  00
0DEC:  MOVF   x0B,W
0DEE:  ANDLW  02
0DF0:  MOVWF  03
0DF2:  MOVF   00,W
0DF4:  IORWF  03,W
0DF6:  BZ    0DFC
.................... 		output_high(DA2_DAT); 
0DF8:  BSF    F89.4
0DFA:  BRA    0DFE
.................... 		else 
.................... 		output_low(DA2_DAT); 
0DFC:  BCF    F89.4
.................... 		delay_cycles(15); 
0DFE:  MOVLW  04
0E00:  MOVWF  00
0E02:  DECFSZ 00,F
0E04:  BRA    0E02
0E06:  BRA    0E08
.................... 		output_low(DA2_CLK); 
0E08:  BCF    F89.3
.................... 		delay_cycles(15); 
0E0A:  MOVLW  04
0E0C:  MOVWF  00
0E0E:  DECFSZ 00,F
0E10:  BRA    0E0E
0E12:  BRA    0E14
.................... 		 
.................... 		output_high(DA2_CLK);  		//send bit 10 DATA 
0E14:  BSF    F89.3
.................... 		if (level & 0x0100) 
0E16:  ANDLW  00
0E18:  MOVWF  00
0E1A:  MOVF   x0B,W
0E1C:  ANDLW  01
0E1E:  MOVWF  03
0E20:  MOVF   00,W
0E22:  IORWF  03,W
0E24:  BZ    0E2A
.................... 		output_high(DA2_DAT); 
0E26:  BSF    F89.4
0E28:  BRA    0E2C
.................... 		else 
.................... 		output_low(DA2_DAT); 
0E2A:  BCF    F89.4
.................... 		output_low(DA2_CLK); 
0E2C:  BCF    F89.3
.................... 		 
.................... 		output_high(DA2_CLK);		//send bit 9 DATA 
0E2E:  BSF    F89.3
.................... 		if (level & 0x0080) 
0E30:  MOVF   x0A,W
0E32:  ANDLW  80
0E34:  MOVWF  00
0E36:  CLRF   03
0E38:  MOVF   00,W
0E3A:  IORWF  03,W
0E3C:  BZ    0E42
.................... 		output_high(DA2_DAT); 
0E3E:  BSF    F89.4
0E40:  BRA    0E44
.................... 		else 
.................... 		output_low(DA2_DAT); 
0E42:  BCF    F89.4
.................... 		delay_cycles(15); 
0E44:  MOVLW  04
0E46:  MOVWF  00
0E48:  DECFSZ 00,F
0E4A:  BRA    0E48
0E4C:  BRA    0E4E
.................... 		output_low(DA2_CLK); 
0E4E:  BCF    F89.3
.................... 		delay_cycles(15); 
0E50:  MOVLW  04
0E52:  MOVWF  00
0E54:  DECFSZ 00,F
0E56:  BRA    0E54
0E58:  BRA    0E5A
.................... 		 
.................... 		output_high(DA2_CLK);		//send bit 8 DATA 
0E5A:  BSF    F89.3
.................... 		if (level & 0x0040) 
0E5C:  MOVF   x0A,W
0E5E:  ANDLW  40
0E60:  MOVWF  00
0E62:  CLRF   03
0E64:  MOVF   00,W
0E66:  IORWF  03,W
0E68:  BZ    0E6E
.................... 		output_high(DA2_DAT); 
0E6A:  BSF    F89.4
0E6C:  BRA    0E70
.................... 		else 
.................... 		output_low(DA2_DAT); 
0E6E:  BCF    F89.4
.................... 		delay_cycles(15); 
0E70:  MOVLW  04
0E72:  MOVWF  00
0E74:  DECFSZ 00,F
0E76:  BRA    0E74
0E78:  BRA    0E7A
.................... 		output_low(DA2_CLK); 
0E7A:  BCF    F89.3
.................... 		delay_cycles(15); 
0E7C:  MOVLW  04
0E7E:  MOVWF  00
0E80:  DECFSZ 00,F
0E82:  BRA    0E80
0E84:  BRA    0E86
.................... 		 
.................... 		output_high(DA2_CLK);		//send bit 7 DATA 
0E86:  BSF    F89.3
.................... 		if (level & 0x0020) 
0E88:  MOVF   x0A,W
0E8A:  ANDLW  20
0E8C:  MOVWF  00
0E8E:  CLRF   03
0E90:  MOVF   00,W
0E92:  IORWF  03,W
0E94:  BZ    0E9A
.................... 		output_high(DA2_DAT); 
0E96:  BSF    F89.4
0E98:  BRA    0E9C
.................... 		else 
.................... 		output_low(DA2_DAT); 
0E9A:  BCF    F89.4
.................... 		output_low(DA2_CLK); 
0E9C:  BCF    F89.3
.................... 		 
.................... 		output_high(DA2_CLK);		//send bit 6 DATA 
0E9E:  BSF    F89.3
.................... 		if (level & 0x0010) 
0EA0:  MOVF   x0A,W
0EA2:  ANDLW  10
0EA4:  MOVWF  00
0EA6:  CLRF   03
0EA8:  MOVF   00,W
0EAA:  IORWF  03,W
0EAC:  BZ    0EB2
.................... 		output_high(DA2_DAT); 
0EAE:  BSF    F89.4
0EB0:  BRA    0EB4
.................... 		else 
.................... 		output_low(DA2_DAT); 
0EB2:  BCF    F89.4
.................... 		delay_cycles(15); 
0EB4:  MOVLW  04
0EB6:  MOVWF  00
0EB8:  DECFSZ 00,F
0EBA:  BRA    0EB8
0EBC:  BRA    0EBE
.................... 		output_low(DA2_CLK); 
0EBE:  BCF    F89.3
.................... 		delay_cycles(15); 
0EC0:  MOVLW  04
0EC2:  MOVWF  00
0EC4:  DECFSZ 00,F
0EC6:  BRA    0EC4
0EC8:  BRA    0ECA
.................... 		 
.................... 		output_high(DA2_CLK);		//send bit 5 DATA 
0ECA:  BSF    F89.3
.................... 		if (level & 0x0008) 
0ECC:  MOVF   x0A,W
0ECE:  ANDLW  08
0ED0:  MOVWF  00
0ED2:  CLRF   03
0ED4:  MOVF   00,W
0ED6:  IORWF  03,W
0ED8:  BZ    0EDE
.................... 		output_high(DA2_DAT); 
0EDA:  BSF    F89.4
0EDC:  BRA    0EE0
.................... 		else 
.................... 		output_low(DA2_DAT); 
0EDE:  BCF    F89.4
.................... 		output_low(DA2_CLK); 
0EE0:  BCF    F89.3
.................... 		 
.................... 		output_high(DA2_CLK);		//send bit 4 DATA 
0EE2:  BSF    F89.3
.................... 		if (level & 0x0004) 
0EE4:  MOVF   x0A,W
0EE6:  ANDLW  04
0EE8:  MOVWF  00
0EEA:  CLRF   03
0EEC:  MOVF   00,W
0EEE:  IORWF  03,W
0EF0:  BZ    0EF6
.................... 		output_high(DA2_DAT); 
0EF2:  BSF    F89.4
0EF4:  BRA    0EF8
.................... 		else 
.................... 		output_low(DA2_DAT); 
0EF6:  BCF    F89.4
.................... 		delay_cycles(15); 
0EF8:  MOVLW  04
0EFA:  MOVWF  00
0EFC:  DECFSZ 00,F
0EFE:  BRA    0EFC
0F00:  BRA    0F02
.................... 		output_low(DA2_CLK); 
0F02:  BCF    F89.3
.................... 		delay_cycles(15); 
0F04:  MOVLW  04
0F06:  MOVWF  00
0F08:  DECFSZ 00,F
0F0A:  BRA    0F08
0F0C:  BRA    0F0E
.................... 		 
.................... 		output_high(DA2_CLK);		//send bit 3 DATA 
0F0E:  BSF    F89.3
.................... 		if (level & 0x0002) 
0F10:  MOVF   x0A,W
0F12:  ANDLW  02
0F14:  MOVWF  00
0F16:  CLRF   03
0F18:  MOVF   00,W
0F1A:  IORWF  03,W
0F1C:  BZ    0F22
.................... 		output_high(DA2_DAT); 
0F1E:  BSF    F89.4
0F20:  BRA    0F24
.................... 		else 
.................... 		output_low(DA2_DAT); 
0F22:  BCF    F89.4
.................... 		output_low(DA2_CLK); 
0F24:  BCF    F89.3
.................... 		 
.................... 		output_high(DA2_CLK);		//send bit 2 DATA 
0F26:  BSF    F89.3
.................... 		if (level & 0x0001) 
0F28:  MOVF   x0A,W
0F2A:  ANDLW  01
0F2C:  MOVWF  00
0F2E:  CLRF   03
0F30:  MOVF   00,W
0F32:  IORWF  03,W
0F34:  BZ    0F3A
.................... 		output_high(DA2_DAT); 
0F36:  BSF    F89.4
0F38:  BRA    0F3C
.................... 		else 
.................... 		output_low(DA2_DAT); 
0F3A:  BCF    F89.4
.................... 		delay_cycles(15); 
0F3C:  MOVLW  04
0F3E:  MOVWF  00
0F40:  DECFSZ 00,F
0F42:  BRA    0F40
0F44:  BRA    0F46
.................... 		output_low(DA2_CLK); 
0F46:  BCF    F89.3
.................... 		delay_cycles(15); 
0F48:  MOVLW  04
0F4A:  MOVWF  00
0F4C:  DECFSZ 00,F
0F4E:  BRA    0F4C
0F50:  BRA    0F52
.................... 		 
.................... 		 
.................... 		output_high(DA2_CLK);		//send bit 1 X dont care 
0F52:  BSF    F89.3
.................... 		delay_cycles(15); 
0F54:  MOVLW  04
0F56:  MOVWF  00
0F58:  DECFSZ 00,F
0F5A:  BRA    0F58
0F5C:  BRA    0F5E
.................... 		output_low(DA2_CLK); 
0F5E:  BCF    F89.3
.................... 		 
.................... 		output_high(DA2_CLK);		//send bit 0 X dont care 
0F60:  BSF    F89.3
.................... 		delay_cycles(15); 
0F62:  MOVLW  04
0F64:  MOVWF  00
0F66:  DECFSZ 00,F
0F68:  BRA    0F66
0F6A:  BRA    0F6C
.................... 		delay_cycles(15); 
0F6C:  MOVLW  04
0F6E:  MOVWF  00
0F70:  DECFSZ 00,F
0F72:  BRA    0F70
0F74:  BRA    0F76
.................... 		output_low(DA2_CLK); 
0F76:  BCF    F89.3
.................... 		delay_cycles(15); 
0F78:  MOVLW  04
0F7A:  MOVWF  00
0F7C:  DECFSZ 00,F
0F7E:  BRA    0F7C
0F80:  BRA    0F82
.................... 		#else						//this else is for #ifdef SW_SPI above   
.................... 		level = (level << 2) | 0x8000; 
.................... 		SPI2BUF = (AD5314,make8(level,1)); 
.................... 		delay_cycles(15); 
.................... 		SPI2BUF = (AD5314,make8(level,0)); 
.................... 		delay_cycles(15); 
.................... 	#endif 
.................... 	 
.................... 	output_high(DA2_SYN); 
0F82:  BSF    F89.2
.................... 	delay_cycles(15); 
0F84:  MOVLW  04
0F86:  MOVWF  00
0F88:  DECFSZ 00,F
0F8A:  BRA    0F88
0F8C:  BRA    0F8E
.................... 	output_low(DA2_LAT); 
0F8E:  BCF    F89.1
.................... 	delay_cycles(15); 
0F90:  MOVLW  04
0F92:  MOVWF  00
0F94:  DECFSZ 00,F
0F96:  BRA    0F94
0F98:  BRA    0F9A
.................... 	output_high(DA2_LAT); 
0F9A:  BSF    F89.1
.................... 	delay_cycles(15); 
0F9C:  MOVLW  04
0F9E:  MOVWF  00
0FA0:  DECFSZ 00,F
0FA2:  BRA    0FA0
0FA4:  BRA    0FA6
0FA6:  MOVLB  0
0FA8:  RETURN 0
.................... } 
....................  
.................... #include "ADF4113.c" 
....................  
.................... ULONG PLL1_A, PLL1_B; 
....................  
....................  
.................... //================================================================================== 
.................... //--------- ADF4113 handling functions ------------------------- 
.................... /* 
.................... Device Programming After Initial Power-Up 
.................... Initialization Latch Method 
....................  Apply VDD. 
....................  Program the initialization latch (11 in two LSBs of input word). 
....................   Make sure that the F1 bit is programmed to 0. 
....................  Do a function latch load (10 in two LSBs of the control word), 
....................   making sure that the F1 bit is programmed to a 0. 
....................  Do an R load (00 in two LSBs). 
....................  Do an N (A, B) load (01 in two LSBs). 
.................... When the initialization latch is loaded, the following occurs: 
....................  The function latch contents are loaded. 
....................  An internal pulse resets the R, N (A, B), and timeout counters to 
....................   load-state conditions and also three-states the charge pump. 
....................   Note that the prescaler band gap reference and the oscillator input 
....................   buffer are unaffected by the internal reset pulse, 
....................   allowing close phase alignment when counting resumes. 
....................  Latching the first N (A, B) counter data after the initialization word 
....................   activates the same internal reset pulse. 
....................   Successive N (A, B) loads will not trigger the internal reset pulse, 
....................   unless there is another initialization. 
.................... */ 
....................  
.................... void PLL1_send_bits(UCHAR data) 
....................   { 
....................   UCHAR count; 
....................   for (count = 8; count ; count--) 
*
0896:  MOVLW  08
0898:  MOVLB  1
089A:  MOVWF  x4B
089C:  MOVF   x4B,F
089E:  BZ    08EE
....................     { 
....................     if (bit_test(data, count-1)) 
08A0:  MOVLW  01
08A2:  SUBWF  x4B,W
08A4:  MOVWF  x4C
08A6:  MOVFF  14A,00
08AA:  MOVF   x4C,W
08AC:  MOVWF  01
08AE:  BZ    08B8
08B0:  BCF    FD8.0
08B2:  RRCF   00,F
08B4:  DECFSZ 01,F
08B6:  BRA    08B0
08B8:  BTFSS  00.0
08BA:  BRA    08C0
....................       output_high(PLL1_DAT); 
08BC:  BSF    F8C.0
08BE:  BRA    08C2
....................     else 
....................       output_low(PLL1_DAT); 
08C0:  BCF    F8C.0
....................     delay_us(100); 
08C2:  CLRWDT
08C4:  MOVLW  84
08C6:  MOVWF  00
08C8:  DECFSZ 00,F
08CA:  BRA    08C8
08CC:  BRA    08CE
....................     output_high(PLL1_CLK); 
08CE:  BSF    F8B.3
....................     delay_us(100); 
08D0:  CLRWDT
08D2:  MOVLW  84
08D4:  MOVWF  00
08D6:  DECFSZ 00,F
08D8:  BRA    08D6
08DA:  BRA    08DC
....................     output_low(PLL1_CLK); 
08DC:  BCF    F8B.3
....................  
....................     delay_us(250); 
08DE:  CLRWDT
08E0:  MOVLW  F9
08E2:  MOVWF  xD3
08E4:  MOVLB  0
08E6:  RCALL  0876
08E8:  MOVLB  1
08EA:  DECF   x4B,F
08EC:  BRA    089C
....................     } 
....................   output_low(PLL1_DAT); 
08EE:  BCF    F8C.0
....................   output_low(PLL1_CLK); 
08F0:  BCF    F8B.3
08F2:  MOVLB  0
08F4:  RETURN 0
....................   } 
....................  
.................... void PLL1_send_word(ULONG prog) 
....................   { 
....................   restart_wdt(); 
08F6:  CLRWDT
....................   disable_interrupts(GLOBAL); 
08F8:  BCF    FF2.6
08FA:  BCF    FF2.7
08FC:  BTFSC  FF2.7
08FE:  BRA    08FA
....................   PLL1_send_bits(make8(prog, 2));               // send LSB 
0900:  MOVFF  147,149
0904:  MOVFF  147,14A
0908:  RCALL  0896
....................   PLL1_send_bits(make8(prog, 1));               // send middle byte 
090A:  MOVFF  146,149
090E:  MOVFF  146,14A
0912:  RCALL  0896
....................   PLL1_send_bits(make8(prog, 0));               // send MSB 
0914:  MOVFF  145,149
0918:  MOVFF  145,14A
091C:  RCALL  0896
....................   delay_us(40); 
091E:  CLRWDT
0920:  MOVLW  34
0922:  MOVWF  00
0924:  DECFSZ 00,F
0926:  BRA    0924
0928:  BRA    092A
....................   output_high(PLL1_LAT);                 // latch 24 bits into register 
092A:  BSF    F8B.2
....................   delay_us(5); 
092C:  CLRWDT
092E:  MOVLW  05
0930:  MOVWF  00
0932:  DECFSZ 00,F
0934:  BRA    0932
0936:  BRA    0938
0938:  NOP   
....................   output_low(PLL1_LAT);                 // latch 24 bits into register 
093A:  BCF    F8B.2
....................   enable_interrupts(GLOBAL); 
093C:  MOVLW  C0
093E:  IORWF  FF2,F
....................   restart_wdt(); 
0940:  CLRWDT
0942:  RETURN 0
....................   } 
....................  
.................... #separate 
.................... void PLL1_update(void) 
....................   { 
....................   ULONG prog; 
....................   prog = (PLL1_B << 8) + (PLL1_A << 2) + 1; // N counter latch 
0944:  MOVFF  EB,149
0948:  MOVFF  EA,148
094C:  MOVFF  E9,147
0950:  MOVLB  1
0952:  CLRF   x46
0954:  MOVLB  0
0956:  RLCF   xE5,W
0958:  MOVWF  00
095A:  RLCF   xE6,W
095C:  MOVWF  01
095E:  RLCF   xE7,W
0960:  MOVWF  02
0962:  RLCF   xE8,W
0964:  MOVWF  03
0966:  RLCF   00,F
0968:  RLCF   01,F
096A:  RLCF   02,F
096C:  RLCF   03,F
096E:  MOVLW  FC
0970:  ANDWF  00,F
0972:  MOVF   00,W
0974:  MOVLB  1
0976:  ADDWF  x46,F
0978:  MOVF   01,W
097A:  ADDWFC x47,F
097C:  MOVF   02,W
097E:  ADDWFC x48,F
0980:  MOVF   03,W
0982:  ADDWFC x49,F
0984:  MOVLW  01
0986:  ADDWF  x46,W
0988:  MOVWF  x41
098A:  MOVLW  00
098C:  ADDWFC x47,W
098E:  MOVWF  x42
0990:  MOVLW  00
0992:  ADDWFC x48,W
0994:  MOVWF  x43
0996:  MOVLW  00
0998:  ADDWFC x49,W
099A:  MOVWF  x44
....................   restart_wdt(); 
099C:  CLRWDT
....................   PLL1_send_word(prog); 
099E:  MOVFF  144,148
09A2:  MOVFF  143,147
09A6:  MOVFF  142,146
09AA:  MOVFF  141,145
09AE:  MOVLB  0
09B0:  RCALL  08F6
09B2:  RETURN 0
....................   } 
....................  
.................... #separate 
.................... void PLL1_initialize(void) 
....................   { 
....................   output_high(PLL1_CE);			//keep PLL CE constant HIGH 
09B4:  BSF    F8B.1
....................   delay_ms(20); 
09B6:  MOVLW  14
09B8:  MOVLB  1
09BA:  MOVWF  x09
09BC:  MOVLB  0
09BE:  RCALL  0846
....................   ULONG prog; 
....................   prog = 0b110010010000000010010011; 
09C0:  MOVLB  1
09C2:  CLRF   x08
09C4:  MOVLW  C9
09C6:  MOVWF  x07
09C8:  CLRF   x06
09CA:  MOVLW  93
09CC:  MOVWF  x05
....................   PLL1_send_word(prog); 
09CE:  MOVFF  108,148
09D2:  MOVFF  107,147
09D6:  MOVFF  106,146
09DA:  MOVFF  105,145
09DE:  MOVLB  0
09E0:  RCALL  08F6
....................    
.................... //  delay_ms(80); 
.................... //  prog = 0b110010010000000010010010;		//0b110010010000000010010010; 
.................... //  PLL1_send_word(prog); 
....................  
....................   delay_ms(80); 
09E2:  MOVLW  50
09E4:  MOVLB  1
09E6:  MOVWF  x09
09E8:  MOVLB  0
09EA:  RCALL  0846
....................   prog = 0b000000000000111110100000; 
09EC:  MOVLB  1
09EE:  CLRF   x08
09F0:  CLRF   x07
09F2:  MOVLW  0F
09F4:  MOVWF  x06
09F6:  MOVLW  A0
09F8:  MOVWF  x05
....................   PLL1_send_word(prog); 
09FA:  MOVFF  108,148
09FE:  MOVFF  107,147
0A02:  MOVFF  106,146
0A06:  MOVFF  105,145
0A0A:  MOVLB  0
0A0C:  RCALL  08F6
....................   delay_ms(150); 
0A0E:  MOVLW  96
0A10:  MOVLB  1
0A12:  MOVWF  x09
0A14:  MOVLB  0
0A16:  RCALL  0846
....................   PLL1_update(); // N counter latch 
0A18:  RCALL  0944
0A1A:  GOTO   3748 (RETURN)
....................   } 
....................  
.................... #separate 
.................... void PLL1_reset(UCHAR PLLx) 
....................   { 
....................   output_low(PLL1_DAT); 
....................   output_low(PLL1_CLK); 
....................   delay_us(1000); 
....................   PLL1_initialize(); 
....................   } 
....................  
.................... //--------- frequency computation functions -------------------- 
.................... #separate 
.................... void PLL1_compute_freq_parameters(UINT Frequest) 
....................   { 
....................   ULONG Fvco, D; 
....................   restart_wdt(); 
*
0B2E:  CLRWDT
....................   Frequest /= 2; 
0B30:  BCF    FD8.0
0B32:  MOVLB  1
0B34:  RRCF   x44,F
0B36:  RRCF   x43,F
.................... //  Frequest -= (UINT)((ULONG)FREQ_BASE / 1000); 
....................   Fvco = (ULONG)FREQ_MUL * (ULONG)Frequest; 
0B38:  MOVFF  143,00
0B3C:  MOVFF  144,01
0B40:  CLRF   02
0B42:  CLRF   03
0B44:  MOVFF  03,150
0B48:  MOVFF  02,14F
0B4C:  MOVFF  144,14E
0B50:  MOVFF  143,14D
0B54:  CLRF   x54
0B56:  CLRF   x53
0B58:  CLRF   x52
0B5A:  MOVLW  64
0B5C:  MOVWF  x51
0B5E:  MOVFF  03,158
0B62:  MOVFF  02,157
0B66:  MOVFF  144,156
0B6A:  MOVFF  143,155
0B6E:  MOVLB  0
0B70:  RCALL  0A40
0B72:  MOVFF  03,148
0B76:  MOVFF  02,147
0B7A:  MOVFF  01,146
0B7E:  MOVFF  00,145
....................   restart_wdt(); 
0B82:  CLRWDT
....................   D = Fvco / FREQ_STEP; 
0B84:  BCF    FD8.1
0B86:  MOVFF  148,1DD
0B8A:  MOVFF  147,1DC
0B8E:  MOVFF  146,1DB
0B92:  MOVFF  145,1DA
0B96:  MOVLB  1
0B98:  CLRF   xE1
0B9A:  CLRF   xE0
0B9C:  CLRF   xDF
0B9E:  MOVLW  0A
0BA0:  MOVWF  xDE
0BA2:  MOVLB  0
0BA4:  RCALL  0A9A
0BA6:  MOVFF  03,14C
0BAA:  MOVFF  02,14B
0BAE:  MOVFF  01,14A
0BB2:  MOVFF  00,149
....................   restart_wdt(); 
0BB6:  CLRWDT
....................   PLL1_B = D / FREQ_P_MULT; 
0BB8:  MOVLB  1
0BBA:  RRCF   x4C,W
0BBC:  MOVLB  0
0BBE:  MOVWF  xEC
0BC0:  MOVLB  1
0BC2:  RRCF   x4B,W
0BC4:  MOVLB  0
0BC6:  MOVWF  xEB
0BC8:  MOVLB  1
0BCA:  RRCF   x4A,W
0BCC:  MOVLB  0
0BCE:  MOVWF  xEA
0BD0:  MOVLB  1
0BD2:  RRCF   x49,W
0BD4:  MOVLB  0
0BD6:  MOVWF  xE9
0BD8:  RRCF   xEC,F
0BDA:  RRCF   xEB,F
0BDC:  RRCF   xEA,F
0BDE:  RRCF   xE9,F
0BE0:  RRCF   xEC,F
0BE2:  RRCF   xEB,F
0BE4:  RRCF   xEA,F
0BE6:  RRCF   xE9,F
0BE8:  RRCF   xEC,F
0BEA:  RRCF   xEB,F
0BEC:  RRCF   xEA,F
0BEE:  RRCF   xE9,F
0BF0:  RRCF   xEC,F
0BF2:  RRCF   xEB,F
0BF4:  RRCF   xEA,F
0BF6:  RRCF   xE9,F
0BF8:  RRCF   xEC,F
0BFA:  RRCF   xEB,F
0BFC:  RRCF   xEA,F
0BFE:  RRCF   xE9,F
0C00:  MOVLW  03
0C02:  ANDWF  xEC,F
....................   PLL1_A = D - (PLL1_B * FREQ_P_MULT); 
0C04:  RLCF   xE9,W
0C06:  MOVWF  00
0C08:  RLCF   xEA,W
0C0A:  MOVWF  01
0C0C:  RLCF   xEB,W
0C0E:  MOVWF  02
0C10:  RLCF   xEC,W
0C12:  MOVWF  03
0C14:  RLCF   00,F
0C16:  RLCF   01,F
0C18:  RLCF   02,F
0C1A:  RLCF   03,F
0C1C:  RLCF   00,F
0C1E:  RLCF   01,F
0C20:  RLCF   02,F
0C22:  RLCF   03,F
0C24:  RLCF   00,F
0C26:  RLCF   01,F
0C28:  RLCF   02,F
0C2A:  RLCF   03,F
0C2C:  RLCF   00,F
0C2E:  RLCF   01,F
0C30:  RLCF   02,F
0C32:  RLCF   03,F
0C34:  RLCF   00,F
0C36:  RLCF   01,F
0C38:  RLCF   02,F
0C3A:  RLCF   03,F
0C3C:  MOVLW  C0
0C3E:  ANDWF  00,F
0C40:  MOVF   00,W
0C42:  MOVLB  1
0C44:  SUBWF  x49,W
0C46:  MOVLB  0
0C48:  MOVWF  xE5
0C4A:  MOVF   01,W
0C4C:  MOVLB  1
0C4E:  SUBWFB x4A,W
0C50:  MOVLB  0
0C52:  MOVWF  xE6
0C54:  MOVF   02,W
0C56:  MOVLB  1
0C58:  SUBWFB x4B,W
0C5A:  MOVLB  0
0C5C:  MOVWF  xE7
0C5E:  MOVF   03,W
0C60:  MOVLB  1
0C62:  SUBWFB x4C,W
0C64:  MOVLB  0
0C66:  MOVWF  xE8
0C68:  RETURN 0
....................   } 
....................  
.................... #separate 
.................... void PLL1_ON(void) 
*
1550:  MOVFF  A4,13E
1554:  MOVFF  A3,13D
.................... { 
.................... 	UINT freq_on = setup.frequency; 
....................     PLL1_compute_freq_parameters(freq_on * 10); 
1558:  MOVFF  13E,142
155C:  MOVFF  13D,141
1560:  MOVLB  1
1562:  CLRF   x44
1564:  MOVLW  0A
1566:  MOVWF  x43
1568:  MOVLB  0
156A:  CALL   0A1E
156E:  MOVFF  02,140
1572:  MOVFF  01,13F
1576:  MOVFF  02,144
157A:  MOVFF  01,143
157E:  CALL   0B2E
....................     PLL1_update();              
1582:  CALL   0944
....................     update_all(); 
1586:  CALL   0C6A
158A:  GOTO   2D32 (RETURN)
.................... } 
....................  
.................... #separate 
.................... void PLL1_OFF(void) 
158E:  MOVLW  DA
1590:  MOVLB  1
1592:  MOVWF  x3E
1594:  MOVLW  C0
1596:  MOVWF  x3D
.................... { 
.................... 	UINT freq_off = 56000; 
.................... 	PLL1_compute_freq_parameters(freq_off * 10); 
1598:  MOVFF  13E,142
159C:  MOVFF  13D,141
15A0:  CLRF   x44
15A2:  MOVLW  0A
15A4:  MOVWF  x43
15A6:  MOVLB  0
15A8:  CALL   0A1E
15AC:  MOVFF  02,140
15B0:  MOVFF  01,13F
15B4:  MOVFF  02,144
15B8:  MOVFF  01,143
15BC:  CALL   0B2E
....................     PLL1_update();              
15C0:  CALL   0944
....................     update_all(); 
15C4:  CALL   0C6A
15C8:  GOTO   2D42 (RETURN)
.................... } 
....................  
.................... #include "BA1533TX_intr.c" 
....................  
.................... //-------------------------------------------------------------------------- 
.................... #int_TIMER4 
.................... void  TIMER4_isr(void) 
....................   { 
....................  
....................   } 
....................  
.................... //-------------------------------------------------------------------------- 
*
0536:  BCF    F7E.0
0538:  GOTO   0084
.................... #int_TIMER2 
.................... void TIMER2_isr(void) // 1mS tick 
....................   { 
....................   TMR_1mS_Flags = 0xFF; 
053C:  SETF   18
....................   TMR_1mS_Count++; 
053E:  INCF   19,F
....................   if (++TMR_1mS_Cnt >= 10) 
0540:  INCF   1A,F
0542:  MOVF   1A,W
0544:  SUBLW  09
0546:  BC    0566
....................     { 
....................     TMR_1mS_Cnt = 0; 
0548:  CLRF   1A
....................     TMR_10mS_Count++; 
054A:  INCF   1B,F
....................     TMR_10mS_Flags = 0xFF; 
054C:  SETF   1C
....................     if (++TMR_10mS_Cnt >= 10) 
054E:  INCF   1D,F
0550:  MOVF   1D,W
0552:  SUBLW  09
0554:  BC    0566
....................       { 
....................       TMR_10mS_Cnt = 0; 
0556:  CLRF   1D
....................       TMR_100mS_Flags = 0xFF; 
0558:  SETF   1E
....................       if (++TMR_100mS_Cnt >= 10) 
055A:  INCF   1F,F
055C:  MOVF   1F,W
055E:  SUBLW  09
0560:  BC    0566
....................         { 
....................         TMR_100mS_Cnt = 0; 
0562:  CLRF   1F
....................         TMR_1sec_Flags = 0xFF; 
0564:  SETF   20
....................         } 
....................       } 
....................     } 
....................   } 
....................  
....................  
.................... //-------------------------------------------------------------------------- 
0566:  BCF    F9E.1
0568:  GOTO   0084
.................... #int_EXT 
.................... void  EXT_isr(void) 
....................     { 
....................  
....................     } 
....................  
.................... //-------------------------------------------------------------------------- 
056C:  BCF    FF2.1
056E:  GOTO   0084
.................... #int_EXT1 
.................... void  EXT1_isr(void) 
....................   { 
....................  
....................   } 
....................  
.................... //-------------------------------------------------------------- 
0572:  BCF    FF0.0
0574:  GOTO   0084
.................... #int_RDA 
.................... void  RDA_isr(void) 
....................   { 
....................   int8 x; 
....................   x = RCREG1; 
0578:  MOVFF  FAE,1E7
....................   COM1_rbuf[COM1_rxi] = x; 
057C:  CLRF   03
057E:  MOVF   2C,W
0580:  ADDLW  2E
0582:  MOVWF  FE9
0584:  MOVLW  00
0586:  ADDWFC 03,W
0588:  MOVWF  FEA
058A:  MOVFF  1E7,FEF
....................   if (++COM1_rxi >= COM1_RX_LEN) 
058E:  INCF   2C,F
0590:  MOVF   2C,W
0592:  SUBLW  1F
0594:  BC    0598
....................     COM1_rxi = 0; 
0596:  CLRF   2C
....................   if (COM1_rcnt < COM1_RX_LEN) 
0598:  MOVF   2B,W
059A:  SUBLW  1F
059C:  BNC   05A0
....................     COM1_rcnt++; 
059E:  INCF   2B,F
....................   } 
....................  
.................... /* 
.................... #int_RDA2 
.................... void  RDA2_isr(void) 
....................   { 
....................   int8 x; 
....................   x = RCREG2; 
....................   COM2_rbuf[COM2_rxi] = x; 
....................   if (++COM2_rxi >= COM2_RX_LEN) 
....................     COM2_rxi = 0; 
....................   if (COM2_rcnt < COM2_RX_LEN) 
....................     COM2_rcnt++; 
....................   } 
.................... */ 
....................  
05A0:  BCF    F9E.5
05A2:  GOTO   0084
.................... #include "BA1533TX_serial.c" 
....................  
.................... UCHAR comm_ptr; 
.................... UCHAR  pa_command = setup.power_amp, on_command = 1, bit_mode = 0; 
.................... int16 count_1sec = 0; 
....................  
.................... //UINT meter1 = 0, meter2 = 0; 
.................... //----------------------------------------------------------------------------- 
.................... UCHAR COM1_get_chr(void) 
....................   { 
....................   UCHAR x; 
....................   x = COM1_rbuf[COM1_rxo]; 
*
110A:  CLRF   03
110C:  MOVF   2D,W
110E:  ADDLW  2E
1110:  MOVWF  FE9
1112:  MOVLW  00
1114:  ADDWFC 03,W
1116:  MOVWF  FEA
1118:  MOVFF  FEF,126
....................   if (++COM1_rxo >= COM1_RX_LEN) 
111C:  INCF   2D,F
111E:  MOVF   2D,W
1120:  SUBLW  1F
1122:  BC    1126
....................     COM1_rxo = 0; 
1124:  CLRF   2D
....................   if (COM1_rcnt) 
1126:  MOVF   2B,F
1128:  BZ    112C
....................     COM1_rcnt--; 
112A:  DECF   2B,F
....................   return x; 
112C:  MOVLB  1
112E:  MOVFF  126,01
1132:  MOVLB  0
1134:  RETURN 0
....................   } 
....................  
.................... //----------------------------------------------------------------------------- 
.................... void COM1_send_str(UCHAR *str) 
....................   { 
....................   UCHAR x, pos, tab_stop; 
....................   disable_interrupts(int_RDA); 
*
0CA4:  BCF    F9D.5
....................   pos = 0; 
0CA6:  MOVLB  1
0CA8:  CLRF   xD0
....................   while (*str) 
0CAA:  MOVFF  1CE,03
0CAE:  MOVFF  1CD,FE9
0CB2:  MOVFF  1CE,FEA
0CB6:  MOVF   FEF,F
0CB8:  BZ    0D2E
....................     { 
....................     x = *str++; 
0CBA:  MOVFF  1CE,03
0CBE:  MOVF   xCD,W
0CC0:  INCF   xCD,F
0CC2:  BTFSC  FD8.2
0CC4:  INCF   xCE,F
0CC6:  MOVWF  FE9
0CC8:  MOVFF  03,FEA
0CCC:  MOVFF  FEF,1CF
....................     if (x != '\t') 
0CD0:  MOVF   xCF,W
0CD2:  SUBLW  09
0CD4:  BZ    0CF6
....................       { 
....................       TXREG1 = x; 
0CD6:  MOVFF  1CF,FAD
....................       pos++; 
0CDA:  INCF   xD0,F
....................       delay_us(300); 
0CDC:  CLRWDT
0CDE:  MOVLW  0D
0CE0:  MOVWF  xD2
0CE2:  MOVLW  16
0CE4:  MOVWF  xD3
0CE6:  MOVLB  0
0CE8:  RCALL  0876
0CEA:  MOVLB  1
0CEC:  DECFSZ xD2,F
0CEE:  BRA    0CE2
....................       x = RCREG1; 
0CF0:  MOVFF  FAE,1CF
....................       } 
0CF4:  BRA    0D2C
....................     else 
....................       { 
....................       tab_stop = 32; 
0CF6:  MOVLW  20
0CF8:  MOVWF  xD1
....................       if (pos >= tab_stop) 
0CFA:  MOVF   xD1,W
0CFC:  SUBWF  xD0,W
0CFE:  BNC   0D06
....................         tab_stop = pos + 2; 
0D00:  MOVLW  02
0D02:  ADDWF  xD0,W
0D04:  MOVWF  xD1
....................       while (pos < tab_stop) 
0D06:  MOVF   xD1,W
0D08:  SUBWF  xD0,W
0D0A:  BC    0D2C
....................         { 
....................         TXREG1 = ' '; 
0D0C:  MOVLW  20
0D0E:  MOVWF  FAD
....................         pos++; 
0D10:  INCF   xD0,F
....................         delay_us(300); 
0D12:  CLRWDT
0D14:  MOVLW  0D
0D16:  MOVWF  xD2
0D18:  MOVLW  16
0D1A:  MOVWF  xD3
0D1C:  MOVLB  0
0D1E:  RCALL  0876
0D20:  MOVLB  1
0D22:  DECFSZ xD2,F
0D24:  BRA    0D18
....................         x = RCREG1; 
0D26:  MOVFF  FAE,1CF
0D2A:  BRA    0D06
....................         } 
....................       } 
0D2C:  BRA    0CAA
....................     } 
....................   x = RCREG1; 
0D2E:  MOVFF  FAE,1CF
....................   enable_interrupts(int_RDA); 
0D32:  BSF    F9D.5
0D34:  MOVLB  0
0D36:  RETURN 0
....................   } 
....................  
.................... //----------------------------------------------------------------------------- 
.................... void COM1_init(void)			//UART HOST 
....................   { 
....................   COM1_rxi = COM1_rxo = COM1_rcnt = 0; 
*
0720:  CLRF   2B
0722:  MOVFF  2B,2D
0726:  MOVFF  2D,2C
....................   comm_state = COMM_INIT; 
072A:  CLRF   4E
....................   enable_interrupts(int_RDA); 
072C:  BSF    F9D.5
072E:  RETURN 0
....................   } 
....................  
.................... //---------------------------------------------------------------------------- 
.................... #separate 
.................... UINT get_char(void) 
....................   { 
....................   return comm_buf[comm_ptr++]; 
*
1136:  MOVF   xED,W
1138:  INCF   xED,F
113A:  CLRF   03
113C:  ADDLW  50
113E:  MOVWF  FE9
1140:  MOVLW  00
1142:  ADDWFC 03,W
1144:  MOVWF  FEA
1146:  CLRF   03
1148:  MOVFF  FEF,01
114C:  MOVFF  03,02
1150:  RETURN 0
....................   } 
....................  
.................... //---------------------------------------------------------------------------- 
.................... #separate 
.................... UINT peek_char(void) 
....................   { 
.................... //  skip_spc(); 
....................   return comm_buf[comm_ptr]; 
*
136E:  CLRF   03
1370:  MOVF   xED,W
1372:  ADDLW  50
1374:  MOVWF  FE9
1376:  MOVLW  00
1378:  ADDWFC 03,W
137A:  MOVWF  FEA
137C:  CLRF   03
137E:  MOVFF  FEF,01
1382:  MOVFF  03,02
1386:  RETURN 0
....................   } 
....................  
.................... //---------------------------------------------------------------------------- 
.................... #separate 
.................... void skip_spc(void) 
....................   { 
....................   while (comm_buf[comm_ptr] && (comm_buf[comm_ptr] == ',' || comm_buf[comm_ptr] == ' ')) 
*
132E:  CLRF   03
1330:  MOVF   xED,W
1332:  ADDLW  50
1334:  MOVWF  FE9
1336:  MOVLW  00
1338:  ADDWFC 03,W
133A:  MOVWF  FEA
133C:  MOVF   FEF,F
133E:  BZ    136C
1340:  CLRF   03
1342:  MOVF   xED,W
1344:  ADDLW  50
1346:  MOVWF  FE9
1348:  MOVLW  00
134A:  ADDWFC 03,W
134C:  MOVWF  FEA
134E:  MOVF   FEF,W
1350:  SUBLW  2C
1352:  BZ    1368
1354:  CLRF   03
1356:  MOVF   xED,W
1358:  ADDLW  50
135A:  MOVWF  FE9
135C:  MOVLW  00
135E:  ADDWFC 03,W
1360:  MOVWF  FEA
1362:  MOVF   FEF,W
1364:  SUBLW  20
1366:  BNZ   136C
....................     comm_ptr++; 
1368:  INCF   xED,F
136A:  BRA    132E
136C:  RETURN 0
....................   } 
....................  
.................... //---------------------------------------------------------------------------- 
.................... #separate 
.................... SINT get_int(void) 
*
13DC:  MOVLB  1
13DE:  CLRF   x42
13E0:  MOVLW  01
13E2:  MOVWF  x41
....................   { 
....................   SINT num, sign = 1; 
....................   skip_spc(); 
13E4:  MOVLB  0
13E6:  RCALL  132E
....................   if (comm_buf[comm_ptr]) 
13E8:  CLRF   03
13EA:  MOVF   xED,W
13EC:  ADDLW  50
13EE:  MOVWF  FE9
13F0:  MOVLW  00
13F2:  ADDWFC 03,W
13F4:  MOVWF  FEA
13F6:  MOVF   FEF,F
13F8:  BZ    1482
....................     { 
....................     num = 0; 
13FA:  MOVLB  1
13FC:  CLRF   x40
13FE:  CLRF   x3F
....................     if (peek_char() == '-') 
1400:  MOVLB  0
1402:  RCALL  136E
1404:  MOVFF  02,144
1408:  MOVFF  01,143
140C:  MOVLB  1
140E:  MOVF   01,W
1410:  SUBLW  2D
1412:  BNZ   1422
1414:  MOVF   x44,F
1416:  BNZ   1422
....................       { 
....................       sign = -1; 
1418:  SETF   x42
141A:  SETF   x41
....................       get_char(); 
141C:  MOVLB  0
141E:  RCALL  1136
1420:  MOVLB  1
....................       } 
....................     while (isdigit(comm_buf[comm_ptr])) 
1422:  CLRF   03
1424:  MOVLB  0
1426:  MOVF   xED,W
1428:  ADDLW  50
142A:  MOVWF  FE9
142C:  MOVLW  00
142E:  ADDWFC 03,W
1430:  MOVWF  FEA
1432:  MOVFF  FEF,143
1436:  MOVLB  1
1438:  MOVF   x43,W
143A:  SUBLW  2F
143C:  BC    1480
143E:  MOVF   x43,W
1440:  SUBLW  39
1442:  BNC   1480
....................       num = (num * 10) + (comm_buf[comm_ptr++] - '0'); 
1444:  MOVFF  140,144
1448:  MOVFF  13F,143
144C:  CLRF   x46
144E:  MOVLW  0A
1450:  MOVWF  x45
1452:  MOVLB  0
1454:  RCALL  1388
1456:  MOVFF  02,144
145A:  MOVFF  01,143
145E:  MOVF   xED,W
1460:  INCF   xED,F
1462:  CLRF   03
1464:  ADDLW  50
1466:  MOVWF  FE9
1468:  MOVLW  00
146A:  ADDWFC 03,W
146C:  MOVWF  FEA
146E:  MOVLW  30
1470:  SUBWF  FEF,W
1472:  MOVLB  1
1474:  ADDWF  01,W
1476:  MOVWF  x3F
1478:  MOVLW  00
147A:  ADDWFC 02,W
147C:  MOVWF  x40
147E:  BRA    1422
1480:  MOVLB  0
....................     } 
.................... //  skip_spc(); 
....................   return num * sign; 
1482:  MOVFF  140,144
1486:  MOVFF  13F,143
148A:  MOVFF  142,146
148E:  MOVFF  141,145
1492:  RCALL  1388
1494:  MOVFF  02,03
1498:  MOVFF  02,02
149C:  RETURN 0
....................   } 
....................  
.................... //---------------------------------------------------------------------------- 
.................... #separate 
.................... ULONG str_to_long(void) 
....................   { 
....................   ULONG num; 
....................   skip_spc(); 
....................   if (comm_buf[comm_ptr])    
....................     { 
....................     num = 0; 
....................     while (isdigit(comm_buf[comm_ptr])) 
....................       num = (num * 10) + (comm_buf[comm_ptr++] - '0'); 
....................     } 
.................... //  skip_spc(); 
....................   return num; 
....................   } 
....................  
.................... //---------------------------------------------------------------------------- 
.................... #separate 
.................... ULONG get_hex(void) 
....................   { 
....................   ULONG num; 
....................   UCHAR chr; 
....................   skip_spc(); 
....................   if (peek_char()) 
....................     { 
....................     num = 0; 
....................     while (isxdigit(peek_char())) 
....................       { 
....................       chr = get_char(); 
....................       chr = toupper(chr); 
....................       if (chr <= '9') 
....................         chr -= '0'; 
....................       else 
....................         chr = chr - ('A' - 10); 
....................       num = num * 16 + (ULONG)chr; 
....................       } 
....................     } 
....................   return num; 
....................   } 
....................  
.................... //---------------------------------------------------------------------------- 
.................... UINT get_frequency(void) 
....................   { 
....................   UINT freq; 
....................   freq = get_int(); 
149E:  RCALL  13DC
14A0:  MOVFF  02,13E
14A4:  MOVFF  01,13D
....................   return freq; 
14A8:  MOVLB  1
14AA:  MOVFF  13D,01
14AE:  MOVFF  13E,02
14B2:  MOVLB  0
14B4:  GOTO   2C18 (RETURN)
....................   } 
.................... //---------------------------------------------------------------------------- 
.................... /*void meter1(void) 
....................   { 
....................   UINT meter1; 
....................   meter1 = get_int(); 
....................   } 
....................  
.................... //---------------------------------------------------------------------------- 
.................... void meter2(void) 
....................   { 
....................   UINT meter2; 
....................   meter2 = get_int(); 
....................   } 
.................... */ 
.................... //---------------------------------------------------------------------------- 
.................... void list_help(void) 
....................   { 
....................   COM1_send_str("\r\n"); 
*
1152:  MOVLW  0D
1154:  MOVLB  1
1156:  MOVWF  x3D
1158:  MOVLW  0A
115A:  MOVWF  x3E
115C:  CLRF   x3F
115E:  MOVLW  01
1160:  MOVWF  xCE
1162:  MOVLW  3D
1164:  MOVWF  xCD
1166:  MOVLB  0
1168:  RCALL  0CA4
....................   COM1_send_str("$F <frequency><cr>  \tSet frequency in 1MHz increments (i.e.2250 is 2.250GHz)\r\n"); 
116A:  MOVLW  01
116C:  MOVWF  FEA
116E:  MOVLW  3D
1170:  MOVWF  FE9
1172:  MOVFF  FF2,18C
1176:  BCF    FF2.7
1178:  MOVLW  4F
117A:  MOVWF  01
117C:  CLRF   FF7
117E:  MOVLW  00
1180:  CALL   00C6
1184:  TBLRD*-
1186:  TBLRD*+
1188:  MOVFF  FF5,FEE
118C:  DECFSZ 01,F
118E:  BRA    1186
1190:  MOVLB  1
1192:  BTFSC  x8C.7
1194:  BSF    FF2.7
1196:  MOVLW  01
1198:  MOVWF  xCE
119A:  MOVLW  3D
119C:  MOVWF  xCD
119E:  MOVLB  0
11A0:  RCALL  0CA4
....................   COM1_send_str("$ON <onoff><cr>  \tSet full operation on(1) or off(0)\r\n"); 
11A2:  MOVLW  01
11A4:  MOVWF  FEA
11A6:  MOVLW  3D
11A8:  MOVWF  FE9
11AA:  MOVFF  FF2,18C
11AE:  BCF    FF2.7
11B0:  MOVLW  37
11B2:  MOVWF  01
11B4:  CLRF   FF7
11B6:  MOVLW  00
11B8:  CALL   0130
11BC:  TBLRD*-
11BE:  TBLRD*+
11C0:  MOVFF  FF5,FEE
11C4:  DECFSZ 01,F
11C6:  BRA    11BE
11C8:  MOVLB  1
11CA:  BTFSC  x8C.7
11CC:  BSF    FF2.7
11CE:  MOVLW  01
11D0:  MOVWF  xCE
11D2:  MOVLW  3D
11D4:  MOVWF  xCD
11D6:  MOVLB  0
11D8:  RCALL  0CA4
....................   COM1_send_str("$PS <power><cr>  \tSet amp power on(1) or off(0)\r\n"); 
11DA:  MOVLW  01
11DC:  MOVWF  FEA
11DE:  MOVLW  3D
11E0:  MOVWF  FE9
11E2:  MOVFF  FF2,18C
11E6:  BCF    FF2.7
11E8:  MOVLW  32
11EA:  MOVWF  01
11EC:  CLRF   FF7
11EE:  MOVLW  00
11F0:  CALL   0182
11F4:  TBLRD*-
11F6:  TBLRD*+
11F8:  MOVFF  FF5,FEE
11FC:  DECFSZ 01,F
11FE:  BRA    11F6
1200:  MOVLB  1
1202:  BTFSC  x8C.7
1204:  BSF    FF2.7
1206:  MOVLW  01
1208:  MOVWF  xCE
120A:  MOVLW  3D
120C:  MOVWF  xCD
120E:  MOVLB  0
1210:  RCALL  0CA4
....................   COM1_send_str("$P <level><cr>  \tSet power level high(1) or low(0)\r\n"); 
1212:  MOVLW  01
1214:  MOVWF  FEA
1216:  MOVLW  3D
1218:  MOVWF  FE9
121A:  MOVFF  FF2,18C
121E:  BCF    FF2.7
1220:  MOVLW  35
1222:  MOVWF  01
1224:  CLRF   FF7
1226:  MOVLW  00
1228:  CALL   01CE
122C:  TBLRD*-
122E:  TBLRD*+
1230:  MOVFF  FF5,FEE
1234:  DECFSZ 01,F
1236:  BRA    122E
1238:  MOVLB  1
123A:  BTFSC  x8C.7
123C:  BSF    FF2.7
123E:  MOVLW  01
1240:  MOVWF  xCE
1242:  MOVLW  3D
1244:  MOVWF  xCD
1246:  MOVLB  0
1248:  RCALL  0CA4
....................   COM1_send_str("$LD <fwd><cr>  \tSet Fwd power measurement on(1) or off(0)\r\n"); 
124A:  MOVLW  01
124C:  MOVWF  FEA
124E:  MOVLW  3D
1250:  MOVWF  FE9
1252:  MOVFF  FF2,18C
1256:  BCF    FF2.7
1258:  MOVLW  3C
125A:  MOVWF  01
125C:  CLRF   FF7
125E:  MOVLW  00
1260:  CALL   021E
1264:  TBLRD*-
1266:  TBLRD*+
1268:  MOVFF  FF5,FEE
126C:  DECFSZ 01,F
126E:  BRA    1266
1270:  MOVLB  1
1272:  BTFSC  x8C.7
1274:  BSF    FF2.7
1276:  MOVLW  01
1278:  MOVWF  xCE
127A:  MOVLW  3D
127C:  MOVWF  xCD
127E:  MOVLB  0
1280:  RCALL  0CA4
....................   COM1_send_str("$Q<cr>  \tRequest status\r\n"); 
1282:  MOVLW  01
1284:  MOVWF  FEA
1286:  MOVLW  3D
1288:  MOVWF  FE9
128A:  MOVFF  FF2,18C
128E:  BCF    FF2.7
1290:  MOVLW  1A
1292:  MOVWF  01
1294:  CLRF   FF7
1296:  MOVLW  00
1298:  CALL   0274
129C:  TBLRD*-
129E:  TBLRD*+
12A0:  MOVFF  FF5,FEE
12A4:  DECFSZ 01,F
12A6:  BRA    129E
12A8:  MOVLB  1
12AA:  BTFSC  x8C.7
12AC:  BSF    FF2.7
12AE:  MOVLW  01
12B0:  MOVWF  xCE
12B2:  MOVLW  3D
12B4:  MOVWF  xCD
12B6:  MOVLB  0
12B8:  RCALL  0CA4
....................   COM1_send_str("$BM<cr>  \tBIT Mode ON(1) OFF(0)\r\n"); 
12BA:  MOVLW  01
12BC:  MOVWF  FEA
12BE:  MOVLW  3D
12C0:  MOVWF  FE9
12C2:  MOVFF  FF2,18C
12C6:  BCF    FF2.7
12C8:  MOVLW  22
12CA:  MOVWF  01
12CC:  CLRF   FF7
12CE:  MOVLW  00
12D0:  CALL   02A8
12D4:  TBLRD*-
12D6:  TBLRD*+
12D8:  MOVFF  FF5,FEE
12DC:  DECFSZ 01,F
12DE:  BRA    12D6
12E0:  MOVLB  1
12E2:  BTFSC  x8C.7
12E4:  BSF    FF2.7
12E6:  MOVLW  01
12E8:  MOVWF  xCE
12EA:  MOVLW  3D
12EC:  MOVWF  xCD
12EE:  MOVLB  0
12F0:  RCALL  0CA4
....................   COM1_send_str("$TR<cr>  \tTRANSIVER(T) RECIVER(R)"); 
12F2:  MOVLW  01
12F4:  MOVWF  FEA
12F6:  MOVLW  3D
12F8:  MOVWF  FE9
12FA:  MOVFF  FF2,18C
12FE:  BCF    FF2.7
1300:  MOVLW  22
1302:  MOVWF  01
1304:  CLRF   FF7
1306:  MOVLW  00
1308:  CALL   02E4
130C:  TBLRD*-
130E:  TBLRD*+
1310:  MOVFF  FF5,FEE
1314:  DECFSZ 01,F
1316:  BRA    130E
1318:  MOVLB  1
131A:  BTFSC  x8C.7
131C:  BSF    FF2.7
131E:  MOVLW  01
1320:  MOVWF  xCE
1322:  MOVLW  3D
1324:  MOVWF  xCD
1326:  MOVLB  0
1328:  RCALL  0CA4
132A:  GOTO   2C0C (RETURN)
....................   //COM1_send_str("\r\n"); 
....................   } 
....................  
.................... // 
.................... //----------------------------------------------------------------------------- 
.................... void send_raw_status(void) 
....................   { 
.................... 	UCHAR buf[64] ; 
.................... 	UINT iv3p3, iv28, iffwr; 
.................... 	float v3p3, v28, ffwr; 
.................... 	set_adc_channel(A2D_Vdd); 				// select 3.3v power input 
*
2568:  MOVLW  00
256A:  MOVWF  01
256C:  MOVF   FC2,W
256E:  ANDLW  83
2570:  IORWF  01,W
2572:  MOVWF  FC2
....................   	delay_us(20); 
2574:  CLRWDT
2576:  MOVLW  19
2578:  MOVWF  00
257A:  DECFSZ 00,F
257C:  BRA    257A
257E:  BRA    2580
2580:  NOP   
....................   	iv3p3 = read_adc(); 
2582:  BSF    FC2.1
2584:  BTFSC  FC2.1
2586:  BRA    2584
2588:  MOVFF  FC4,17E
258C:  MOVLB  1
258E:  MOVFF  FC3,17D
....................  
.................... 	set_adc_channel(A2D_28v); 			// select 28v power input 
2592:  MOVLW  24
2594:  MOVWF  01
2596:  MOVF   FC2,W
2598:  ANDLW  83
259A:  IORWF  01,W
259C:  MOVWF  FC2
....................   	delay_us(20); 
259E:  CLRWDT
25A0:  MOVLW  19
25A2:  MOVWF  00
25A4:  DECFSZ 00,F
25A6:  BRA    25A4
25A8:  BRA    25AA
25AA:  NOP   
....................   	iv28 = read_adc(); 
25AC:  BSF    FC2.1
25AE:  BTFSC  FC2.1
25B0:  BRA    25AE
25B2:  MOVFF  FC3,17F
25B6:  MOVFF  FC4,180
....................  
.................... 	set_adc_channel(A2D_FFWR2); 			// select ffwr2 power input 
25BA:  MOVLW  18
25BC:  MOVWF  01
25BE:  MOVF   FC2,W
25C0:  ANDLW  83
25C2:  IORWF  01,W
25C4:  MOVWF  FC2
....................   	delay_us(20); 
25C6:  CLRWDT
25C8:  MOVLW  19
25CA:  MOVWF  00
25CC:  DECFSZ 00,F
25CE:  BRA    25CC
25D0:  BRA    25D2
25D2:  NOP   
....................   	iffwr = read_adc(); 
25D4:  BSF    FC2.1
25D6:  BTFSC  FC2.1
25D8:  BRA    25D6
25DA:  MOVFF  FC3,181
25DE:  MOVFF  FC4,182
....................  
.................... 	v3p3 = (float)iv3p3 / 1024.0 * 3.3; 
25E2:  MOVFF  17E,1CE
25E6:  MOVFF  17D,1CD
25EA:  MOVLB  0
25EC:  CALL   15FA
25F0:  MOVFF  03,192
25F4:  MOVFF  02,191
25F8:  MOVFF  01,190
25FC:  MOVFF  00,18F
2600:  MOVFF  03,1D4
2604:  MOVFF  02,1D3
2608:  MOVFF  01,1D2
260C:  MOVFF  00,1D1
2610:  MOVLB  1
2612:  CLRF   xD8
2614:  CLRF   xD7
2616:  CLRF   xD6
2618:  MOVLW  89
261A:  MOVWF  xD5
261C:  MOVLB  0
261E:  CALL   1762
2622:  MOVFF  03,192
2626:  MOVFF  02,191
262A:  MOVFF  01,190
262E:  MOVFF  00,18F
2632:  MOVFF  03,1DD
2636:  MOVFF  02,1DC
263A:  MOVFF  01,1DB
263E:  MOVFF  00,1DA
2642:  MOVLW  33
2644:  MOVLB  1
2646:  MOVWF  xE1
2648:  MOVWF  xE0
264A:  MOVLW  53
264C:  MOVWF  xDF
264E:  MOVLW  80
2650:  MOVWF  xDE
2652:  MOVLB  0
2654:  CALL   1630
2658:  MOVFF  03,186
265C:  MOVFF  02,185
2660:  MOVFF  01,184
2664:  MOVFF  00,183
.................... 	v28 = (float)iv28 / 1024.0 * 36.3;  	//36.3 = 3.3 * 11 
2668:  MOVFF  180,1CE
266C:  MOVFF  17F,1CD
2670:  CALL   15FA
2674:  MOVFF  03,192
2678:  MOVFF  02,191
267C:  MOVFF  01,190
2680:  MOVFF  00,18F
2684:  MOVFF  03,1D4
2688:  MOVFF  02,1D3
268C:  MOVFF  01,1D2
2690:  MOVFF  00,1D1
2694:  MOVLB  1
2696:  CLRF   xD8
2698:  CLRF   xD7
269A:  CLRF   xD6
269C:  MOVLW  89
269E:  MOVWF  xD5
26A0:  MOVLB  0
26A2:  CALL   1762
26A6:  MOVFF  03,192
26AA:  MOVFF  02,191
26AE:  MOVFF  01,190
26B2:  MOVFF  00,18F
26B6:  MOVFF  03,1DD
26BA:  MOVFF  02,1DC
26BE:  MOVFF  01,1DB
26C2:  MOVFF  00,1DA
26C6:  MOVLW  33
26C8:  MOVLB  1
26CA:  MOVWF  xE1
26CC:  MOVWF  xE0
26CE:  MOVLW  11
26D0:  MOVWF  xDF
26D2:  MOVLW  84
26D4:  MOVWF  xDE
26D6:  MOVLB  0
26D8:  CALL   1630
26DC:  MOVFF  03,18A
26E0:  MOVFF  02,189
26E4:  MOVFF  01,188
26E8:  MOVFF  00,187
.................... 	ffwr = (float)iffwr / 1024.0 * 3.3;  
26EC:  MOVFF  182,1CE
26F0:  MOVFF  181,1CD
26F4:  CALL   15FA
26F8:  MOVFF  03,192
26FC:  MOVFF  02,191
2700:  MOVFF  01,190
2704:  MOVFF  00,18F
2708:  MOVFF  03,1D4
270C:  MOVFF  02,1D3
2710:  MOVFF  01,1D2
2714:  MOVFF  00,1D1
2718:  MOVLB  1
271A:  CLRF   xD8
271C:  CLRF   xD7
271E:  CLRF   xD6
2720:  MOVLW  89
2722:  MOVWF  xD5
2724:  MOVLB  0
2726:  CALL   1762
272A:  MOVFF  03,192
272E:  MOVFF  02,191
2732:  MOVFF  01,190
2736:  MOVFF  00,18F
273A:  MOVFF  03,1DD
273E:  MOVFF  02,1DC
2742:  MOVFF  01,1DB
2746:  MOVFF  00,1DA
274A:  MOVLW  33
274C:  MOVLB  1
274E:  MOVWF  xE1
2750:  MOVWF  xE0
2752:  MOVLW  53
2754:  MOVWF  xDF
2756:  MOVLW  80
2758:  MOVWF  xDE
275A:  MOVLB  0
275C:  CALL   1630
2760:  MOVFF  03,18E
2764:  MOVFF  02,18D
2768:  MOVFF  01,18C
276C:  MOVFF  00,18B
.................... 	sprintf(buf, "\r\n3.3v power in=%2.1f(v) 28v power in=%2.1f(v) FFWR2=%2.1f(v)",v3p3, v28, ffwr); 
2770:  MOVLW  01
2772:  MOVWF  xF4
2774:  MOVLW  3D
2776:  MOVWF  xF3
2778:  MOVLW  A6
277A:  MOVWF  FF6
277C:  MOVLW  05
277E:  MOVWF  FF7
2780:  MOVLW  10
2782:  MOVLB  1
2784:  MOVWF  xCD
2786:  MOVLB  0
2788:  CALL   1B58
278C:  MOVLW  01
278E:  MOVWF  FE9
2790:  MOVFF  186,1D0
2794:  MOVFF  185,1CF
2798:  MOVFF  184,1CE
279C:  MOVFF  183,1CD
27A0:  MOVLB  1
27A2:  MOVWF  xD1
27A4:  MOVLB  0
27A6:  CALL   1CA4
27AA:  MOVLW  BB
27AC:  MOVWF  FF6
27AE:  MOVLW  05
27B0:  MOVWF  FF7
27B2:  MOVLW  11
27B4:  MOVLB  1
27B6:  MOVWF  xCD
27B8:  MOVLB  0
27BA:  CALL   1B58
27BE:  MOVLW  01
27C0:  MOVWF  FE9
27C2:  MOVFF  18A,1D0
27C6:  MOVFF  189,1CF
27CA:  MOVFF  188,1CE
27CE:  MOVFF  187,1CD
27D2:  MOVLB  1
27D4:  MOVWF  xD1
27D6:  MOVLB  0
27D8:  CALL   1CA4
27DC:  MOVLW  D1
27DE:  MOVWF  FF6
27E0:  MOVLW  05
27E2:  MOVWF  FF7
27E4:  MOVLW  0A
27E6:  MOVLB  1
27E8:  MOVWF  xCD
27EA:  MOVLB  0
27EC:  CALL   1B58
27F0:  MOVLW  01
27F2:  MOVWF  FE9
27F4:  MOVFF  18E,1D0
27F8:  MOVFF  18D,1CF
27FC:  MOVFF  18C,1CE
2800:  MOVFF  18B,1CD
2804:  MOVLB  1
2806:  MOVWF  xD1
2808:  MOVLB  0
280A:  CALL   1CA4
280E:  MOVLW  E0
2810:  MOVWF  FF6
2812:  MOVLW  05
2814:  MOVWF  FF7
2816:  MOVLW  03
2818:  MOVLB  1
281A:  MOVWF  xCD
281C:  MOVLB  0
281E:  CALL   1B58
.................... 	COM1_send_str(buf); 
2822:  MOVLW  01
2824:  MOVLB  1
2826:  MOVWF  xCE
2828:  MOVLW  3D
282A:  MOVWF  xCD
282C:  MOVLB  0
282E:  CALL   0CA4
....................  
.................... 	sprintf(buf, "\r\nNEgative Voltage LOW=%lu (%.1fmv) High=%lu (%.1fmv)",setup.negative_voltage[0],(setup.negative_voltage[0] * 4.761), setup.negative_voltage[1], (setup.negative_voltage[1] * 4.761)); 
2832:  MOVFF  A8,1CE
2836:  MOVFF  A7,1CD
283A:  CALL   15FA
283E:  MOVFF  03,1DD
2842:  MOVFF  02,1DC
2846:  MOVFF  01,1DB
284A:  MOVFF  00,1DA
284E:  MOVLW  1D
2850:  MOVLB  1
2852:  MOVWF  xE1
2854:  MOVLW  5A
2856:  MOVWF  xE0
2858:  MOVLW  18
285A:  MOVWF  xDF
285C:  MOVLW  81
285E:  MOVWF  xDE
2860:  MOVLB  0
2862:  CALL   1630
2866:  MOVFF  03,192
286A:  MOVFF  02,191
286E:  MOVFF  01,190
2872:  MOVFF  00,18F
2876:  MOVFF  AA,1CE
287A:  MOVFF  A9,1CD
287E:  CALL   15FA
2882:  MOVFF  03,1DD
2886:  MOVFF  02,1DC
288A:  MOVFF  01,1DB
288E:  MOVFF  00,1DA
2892:  MOVLW  1D
2894:  MOVLB  1
2896:  MOVWF  xE1
2898:  MOVLW  5A
289A:  MOVWF  xE0
289C:  MOVLW  18
289E:  MOVWF  xDF
28A0:  MOVLW  81
28A2:  MOVWF  xDE
28A4:  MOVLB  0
28A6:  CALL   1630
28AA:  MOVFF  03,196
28AE:  MOVFF  02,195
28B2:  MOVFF  01,194
28B6:  MOVFF  00,193
28BA:  MOVLW  01
28BC:  MOVWF  xF4
28BE:  MOVLW  3D
28C0:  MOVWF  xF3
28C2:  MOVLW  E4
28C4:  MOVWF  FF6
28C6:  MOVLW  05
28C8:  MOVWF  FF7
28CA:  MOVLW  17
28CC:  MOVLB  1
28CE:  MOVWF  xCD
28D0:  MOVLB  0
28D2:  CALL   1B58
28D6:  MOVLW  10
28D8:  MOVWF  FE9
28DA:  MOVFF  A8,1CE
28DE:  MOVFF  A7,1CD
28E2:  CALL   1B80
28E6:  MOVLW  20
28E8:  MOVLB  1
28EA:  MOVWF  xDA
28EC:  MOVLB  0
28EE:  CALL   1B38
28F2:  MOVLW  28
28F4:  MOVLB  1
28F6:  MOVWF  xDA
28F8:  MOVLB  0
28FA:  CALL   1B38
28FE:  MOVLW  89
2900:  MOVWF  FE9
2902:  MOVFF  192,1D0
2906:  MOVFF  191,1CF
290A:  MOVFF  190,1CE
290E:  MOVFF  18F,1CD
2912:  MOVLW  01
2914:  MOVLB  1
2916:  MOVWF  xD1
2918:  MOVLB  0
291A:  CALL   1CA4
291E:  MOVLW  04
2920:  MOVWF  FF6
2922:  MOVLW  06
2924:  MOVWF  FF7
2926:  MOVLW  09
2928:  MOVLB  1
292A:  MOVWF  xCD
292C:  MOVLB  0
292E:  CALL   1B58
2932:  MOVLW  10
2934:  MOVWF  FE9
2936:  MOVFF  AA,1CE
293A:  MOVFF  A9,1CD
293E:  CALL   1B80
2942:  MOVLW  20
2944:  MOVLB  1
2946:  MOVWF  xDA
2948:  MOVLB  0
294A:  CALL   1B38
294E:  MOVLW  28
2950:  MOVLB  1
2952:  MOVWF  xDA
2954:  MOVLB  0
2956:  CALL   1B38
295A:  MOVLW  89
295C:  MOVWF  FE9
295E:  MOVFF  196,1D0
2962:  MOVFF  195,1CF
2966:  MOVFF  194,1CE
296A:  MOVFF  193,1CD
296E:  MOVLW  01
2970:  MOVLB  1
2972:  MOVWF  xD1
2974:  MOVLB  0
2976:  CALL   1CA4
297A:  MOVLW  16
297C:  MOVWF  FF6
297E:  MOVLW  06
2980:  MOVWF  FF7
2982:  MOVLW  03
2984:  MOVLB  1
2986:  MOVWF  xCD
2988:  MOVLB  0
298A:  CALL   1B58
.................... 	COM1_send_str(buf); 
298E:  MOVLW  01
2990:  MOVLB  1
2992:  MOVWF  xCE
2994:  MOVLW  3D
2996:  MOVWF  xCD
2998:  MOVLB  0
299A:  CALL   0CA4
.................... 	sprintf(buf, "\r\nPositive Voltage LOW=%lu (%.1fmv) High=%lu (%.1fmv)",setup.power_in[0], (setup.power_in[0] * 4.761), setup.power_in[1], (setup.power_in[1] * 4.761)); 
299E:  MOVFF  AC,1CE
29A2:  MOVFF  AB,1CD
29A6:  CALL   15FA
29AA:  MOVFF  03,1DD
29AE:  MOVFF  02,1DC
29B2:  MOVFF  01,1DB
29B6:  MOVFF  00,1DA
29BA:  MOVLW  1D
29BC:  MOVLB  1
29BE:  MOVWF  xE1
29C0:  MOVLW  5A
29C2:  MOVWF  xE0
29C4:  MOVLW  18
29C6:  MOVWF  xDF
29C8:  MOVLW  81
29CA:  MOVWF  xDE
29CC:  MOVLB  0
29CE:  CALL   1630
29D2:  MOVFF  03,192
29D6:  MOVFF  02,191
29DA:  MOVFF  01,190
29DE:  MOVFF  00,18F
29E2:  MOVFF  AE,1CE
29E6:  MOVFF  AD,1CD
29EA:  CALL   15FA
29EE:  MOVFF  03,1DD
29F2:  MOVFF  02,1DC
29F6:  MOVFF  01,1DB
29FA:  MOVFF  00,1DA
29FE:  MOVLW  1D
2A00:  MOVLB  1
2A02:  MOVWF  xE1
2A04:  MOVLW  5A
2A06:  MOVWF  xE0
2A08:  MOVLW  18
2A0A:  MOVWF  xDF
2A0C:  MOVLW  81
2A0E:  MOVWF  xDE
2A10:  MOVLB  0
2A12:  CALL   1630
2A16:  MOVFF  03,196
2A1A:  MOVFF  02,195
2A1E:  MOVFF  01,194
2A22:  MOVFF  00,193
2A26:  MOVLW  01
2A28:  MOVWF  xF4
2A2A:  MOVLW  3D
2A2C:  MOVWF  xF3
2A2E:  MOVLW  1A
2A30:  MOVWF  FF6
2A32:  MOVLW  06
2A34:  MOVWF  FF7
2A36:  MOVLW  17
2A38:  MOVLB  1
2A3A:  MOVWF  xCD
2A3C:  MOVLB  0
2A3E:  CALL   1B58
2A42:  MOVLW  10
2A44:  MOVWF  FE9
2A46:  MOVFF  AC,1CE
2A4A:  MOVFF  AB,1CD
2A4E:  CALL   1B80
2A52:  MOVLW  20
2A54:  MOVLB  1
2A56:  MOVWF  xDA
2A58:  MOVLB  0
2A5A:  CALL   1B38
2A5E:  MOVLW  28
2A60:  MOVLB  1
2A62:  MOVWF  xDA
2A64:  MOVLB  0
2A66:  CALL   1B38
2A6A:  MOVLW  89
2A6C:  MOVWF  FE9
2A6E:  MOVFF  192,1D0
2A72:  MOVFF  191,1CF
2A76:  MOVFF  190,1CE
2A7A:  MOVFF  18F,1CD
2A7E:  MOVLW  01
2A80:  MOVLB  1
2A82:  MOVWF  xD1
2A84:  MOVLB  0
2A86:  CALL   1CA4
2A8A:  MOVLW  3A
2A8C:  MOVWF  FF6
2A8E:  MOVLW  06
2A90:  MOVWF  FF7
2A92:  MOVLW  09
2A94:  MOVLB  1
2A96:  MOVWF  xCD
2A98:  MOVLB  0
2A9A:  CALL   1B58
2A9E:  MOVLW  10
2AA0:  MOVWF  FE9
2AA2:  MOVFF  AE,1CE
2AA6:  MOVFF  AD,1CD
2AAA:  CALL   1B80
2AAE:  MOVLW  20
2AB0:  MOVLB  1
2AB2:  MOVWF  xDA
2AB4:  MOVLB  0
2AB6:  CALL   1B38
2ABA:  MOVLW  28
2ABC:  MOVLB  1
2ABE:  MOVWF  xDA
2AC0:  MOVLB  0
2AC2:  CALL   1B38
2AC6:  MOVLW  89
2AC8:  MOVWF  FE9
2ACA:  MOVFF  196,1D0
2ACE:  MOVFF  195,1CF
2AD2:  MOVFF  194,1CE
2AD6:  MOVFF  193,1CD
2ADA:  MOVLW  01
2ADC:  MOVLB  1
2ADE:  MOVWF  xD1
2AE0:  MOVLB  0
2AE2:  CALL   1CA4
2AE6:  MOVLW  4C
2AE8:  MOVWF  FF6
2AEA:  MOVLW  06
2AEC:  MOVWF  FF7
2AEE:  MOVLW  03
2AF0:  MOVLB  1
2AF2:  MOVWF  xCD
2AF4:  MOVLB  0
2AF6:  CALL   1B58
.................... 	COM1_send_str(buf); 
2AFA:  MOVLW  01
2AFC:  MOVLB  1
2AFE:  MOVWF  xCE
2B00:  MOVLW  3D
2B02:  MOVWF  xCD
2B04:  MOVLB  0
2B06:  CALL   0CA4
2B0A:  GOTO   34F4 (RETURN)
....................  
....................  
....................   } 
....................  
....................  
.................... //---------------------------------------------------------------------------- 
.................... void send_status(void) 
....................   { 
....................   UINT revp, fpwr, itemp, idx; 
....................   UCHAR buf[64], revstat[11], light_stat[11], transmit_stat[11], bit_mode_stat[11], lock_stat[11], power_stat[11]; 
....................   float temp; 
....................  
....................  
....................  
....................   set_adc_channel(A2D_PREV); // select reverse power input 
*
1F1A:  MOVLW  10
1F1C:  MOVWF  01
1F1E:  MOVF   FC2,W
1F20:  ANDLW  83
1F22:  IORWF  01,W
1F24:  MOVWF  FC2
....................   delay_us(20); 
1F26:  CLRWDT
1F28:  MOVLW  19
1F2A:  MOVWF  00
1F2C:  DECFSZ 00,F
1F2E:  BRA    1F2C
1F30:  BRA    1F32
1F32:  NOP   
....................   revp = read_adc(); 
1F34:  BSF    FC2.1
1F36:  BTFSC  FC2.1
1F38:  BRA    1F36
1F3A:  MOVFF  FC4,13E
1F3E:  MOVLB  1
1F40:  MOVFF  FC3,13D
....................  
....................   set_adc_channel(A2D_TEMP); // select temperature input 
1F44:  MOVLW  64
1F46:  MOVWF  01
1F48:  MOVF   FC2,W
1F4A:  ANDLW  83
1F4C:  IORWF  01,W
1F4E:  MOVWF  FC2
....................   delay_us(20); 
1F50:  CLRWDT
1F52:  MOVLW  19
1F54:  MOVWF  00
1F56:  DECFSZ 00,F
1F58:  BRA    1F56
1F5A:  BRA    1F5C
1F5C:  NOP   
....................   itemp = read_adc(); 
1F5E:  BSF    FC2.1
1F60:  BTFSC  FC2.1
1F62:  BRA    1F60
1F64:  MOVFF  FC3,141
1F68:  MOVFF  FC4,142
....................  
....................   temp = (float)itemp / 1024.0 * 3.3; 
1F6C:  MOVFF  142,1CE
1F70:  MOVFF  141,1CD
1F74:  MOVLB  0
1F76:  CALL   15FA
1F7A:  MOVFF  03,1D0
1F7E:  MOVFF  02,1CF
1F82:  MOVFF  01,1CE
1F86:  MOVFF  00,1CD
1F8A:  MOVFF  03,1D4
1F8E:  MOVFF  02,1D3
1F92:  MOVFF  01,1D2
1F96:  MOVFF  00,1D1
1F9A:  MOVLB  1
1F9C:  CLRF   xD8
1F9E:  CLRF   xD7
1FA0:  CLRF   xD6
1FA2:  MOVLW  89
1FA4:  MOVWF  xD5
1FA6:  MOVLB  0
1FA8:  CALL   1762
1FAC:  MOVFF  03,1D0
1FB0:  MOVFF  02,1CF
1FB4:  MOVFF  01,1CE
1FB8:  MOVFF  00,1CD
1FBC:  MOVFF  03,1DD
1FC0:  MOVFF  02,1DC
1FC4:  MOVFF  01,1DB
1FC8:  MOVFF  00,1DA
1FCC:  MOVLW  33
1FCE:  MOVLB  1
1FD0:  MOVWF  xE1
1FD2:  MOVWF  xE0
1FD4:  MOVLW  53
1FD6:  MOVWF  xDF
1FD8:  MOVLW  80
1FDA:  MOVWF  xDE
1FDC:  MOVLB  0
1FDE:  CALL   1630
1FE2:  MOVFF  03,1CA
1FE6:  MOVFF  02,1C9
1FEA:  MOVFF  01,1C8
1FEE:  MOVFF  00,1C7
....................   temp -= 0.75; 
1FF2:  BSF    FD8.1
1FF4:  MOVFF  1CA,1D0
1FF8:  MOVFF  1C9,1CF
1FFC:  MOVFF  1C8,1CE
2000:  MOVFF  1C7,1CD
2004:  MOVLB  1
2006:  CLRF   xD4
2008:  CLRF   xD3
200A:  MOVLW  40
200C:  MOVWF  xD2
200E:  MOVLW  7E
2010:  MOVWF  xD1
2012:  MOVLB  0
2014:  RCALL  18C0
2016:  MOVFF  03,1CA
201A:  MOVFF  02,1C9
201E:  MOVFF  01,1C8
2022:  MOVFF  00,1C7
....................   temp *= 100; 
2026:  MOVFF  1CA,1DD
202A:  MOVFF  1C9,1DC
202E:  MOVFF  1C8,1DB
2032:  MOVFF  1C7,1DA
2036:  MOVLB  1
2038:  CLRF   xE1
203A:  CLRF   xE0
203C:  MOVLW  48
203E:  MOVWF  xDF
2040:  MOVLW  85
2042:  MOVWF  xDE
2044:  MOVLB  0
2046:  CALL   1630
204A:  MOVFF  03,1CA
204E:  MOVFF  02,1C9
2052:  MOVFF  01,1C8
2056:  MOVFF  00,1C7
....................   temp += 25.0; 
205A:  BCF    FD8.1
205C:  MOVFF  1CA,1D0
2060:  MOVFF  1C9,1CF
2064:  MOVFF  1C8,1CE
2068:  MOVFF  1C7,1CD
206C:  MOVLB  1
206E:  CLRF   xD4
2070:  CLRF   xD3
2072:  MOVLW  48
2074:  MOVWF  xD2
2076:  MOVLW  83
2078:  MOVWF  xD1
207A:  MOVLB  0
207C:  RCALL  18C0
207E:  MOVFF  03,1CA
2082:  MOVFF  02,1C9
2086:  MOVFF  01,1C8
208A:  MOVFF  00,1C7
....................  
....................   set_adc_channel(A2D_POWER); // select forward power input 
208E:  MOVLW  14
2090:  MOVWF  01
2092:  MOVF   FC2,W
2094:  ANDLW  83
2096:  IORWF  01,W
2098:  MOVWF  FC2
....................   delay_us(20); 
209A:  CLRWDT
209C:  MOVLW  19
209E:  MOVWF  00
20A0:  DECFSZ 00,F
20A2:  BRA    20A0
20A4:  BRA    20A6
20A6:  NOP   
....................   fpwr = read_adc(); 
20A8:  BSF    FC2.1
20AA:  BTFSC  FC2.1
20AC:  BRA    20AA
20AE:  MOVFF  FC4,140
20B2:  MOVLB  1
20B4:  MOVFF  FC3,13F
....................  
....................   for (idx = 0; idx < 12; idx++) 
20B8:  CLRF   x44
20BA:  CLRF   x43
20BC:  MOVF   x44,F
20BE:  BNZ   2104
20C0:  MOVF   x43,W
20C2:  SUBLW  0B
20C4:  BNC   2104
....................     if (fpwr <= setup.fwd_table[idx][0]) 
20C6:  RLCF   x43,W
20C8:  MOVWF  02
20CA:  RLCF   x44,W
20CC:  MOVWF  03
20CE:  RLCF   02,F
20D0:  RLCF   03,F
20D2:  MOVLW  FC
20D4:  ANDWF  02,F
20D6:  MOVF   02,W
20D8:  ADDLW  AF
20DA:  MOVWF  FE9
20DC:  MOVLW  00
20DE:  ADDWFC 03,W
20E0:  MOVWF  FEA
20E2:  MOVFF  FEC,03
20E6:  MOVF   FED,F
20E8:  MOVFF  FEF,01
20EC:  MOVF   x40,W
20EE:  SUBWF  03,W
20F0:  BNC   20FC
20F2:  BNZ   20FA
20F4:  MOVF   x3F,W
20F6:  SUBWF  01,W
20F8:  BNC   20FC
....................       break; 
20FA:  BRA    2104
20FC:  INCF   x43,F
20FE:  BTFSC  FD8.2
2100:  INCF   x44,F
2102:  BRA    20BC
....................   fpwr = setup.fwd_table[idx][1]; 
2104:  RLCF   x43,W
2106:  MOVWF  02
2108:  RLCF   x44,W
210A:  MOVWF  03
210C:  RLCF   02,F
210E:  RLCF   03,F
2110:  MOVLW  FC
2112:  ANDWF  02,F
2114:  MOVF   02,W
2116:  ADDLW  0D
2118:  MOVWF  xCD
211A:  MOVLW  00
211C:  ADDWFC 03,W
211E:  MOVWF  xCE
2120:  MOVLW  02
2122:  ADDWF  xCD,W
2124:  MOVWF  01
2126:  MOVLW  00
2128:  ADDWFC xCE,W
212A:  MOVWF  03
212C:  MOVF   01,W
212E:  ADDLW  A2
2130:  MOVWF  FE9
2132:  MOVLW  00
2134:  ADDWFC 03,W
2136:  MOVWF  FEA
2138:  MOVFF  FEC,140
213C:  MOVF   FED,F
213E:  MOVFF  FEF,13F
....................  
....................   if (revp <= 530) 
2142:  MOVF   x3E,W
2144:  SUBLW  02
2146:  BNC   217A
2148:  BNZ   2150
214A:  MOVF   x3D,W
214C:  SUBLW  12
214E:  BNC   217A
....................     strcpy(revstat, "GOOD"); 
2150:  MOVLW  01
2152:  MOVWF  FEA
2154:  MOVLW  85
2156:  MOVWF  FE9
2158:  MOVFF  FF2,1CD
215C:  BCF    FF2.7
215E:  MOVLW  00
2160:  MOVLB  0
2162:  CALL   0320
2166:  TBLRD*-
2168:  TBLRD*+
216A:  MOVF   FF5,W
216C:  MOVWF  FEE
216E:  IORLW  00
2170:  BNZ   2168
2172:  MOVLB  1
2174:  BTFSC  xCD.7
2176:  BSF    FF2.7
2178:  BRA    21A2
....................   else 
....................     strcpy(revstat, "BAD"); 
217A:  MOVLW  01
217C:  MOVWF  FEA
217E:  MOVLW  85
2180:  MOVWF  FE9
2182:  MOVFF  FF2,1CD
2186:  BCF    FF2.7
2188:  MOVLW  00
218A:  MOVLB  0
218C:  CALL   0340
2190:  TBLRD*-
2192:  TBLRD*+
2194:  MOVF   FF5,W
2196:  MOVWF  FEE
2198:  IORLW  00
219A:  BNZ   2192
219C:  MOVLB  1
219E:  BTFSC  xCD.7
21A0:  BSF    FF2.7
....................  
....................   if(setup.meter_backlight == 1) 
21A2:  MOVLB  0
21A4:  DECFSZ xDD,W
21A6:  BRA    21D2
....................   	strcpy(light_stat, "ON"); 
21A8:  MOVLW  01
21AA:  MOVWF  FEA
21AC:  MOVLW  90
21AE:  MOVWF  FE9
21B0:  MOVFF  FF2,1CD
21B4:  BCF    FF2.7
21B6:  MOVLW  00
21B8:  CALL   035E
21BC:  TBLRD*-
21BE:  TBLRD*+
21C0:  MOVF   FF5,W
21C2:  MOVWF  FEE
21C4:  IORLW  00
21C6:  BNZ   21BE
21C8:  MOVLB  1
21CA:  BTFSC  xCD.7
21CC:  BSF    FF2.7
21CE:  BRA    21F8
21D0:  MOVLB  0
....................   else  
....................   	strcpy(light_stat, "OFF"); 
21D2:  MOVLW  01
21D4:  MOVWF  FEA
21D6:  MOVLW  90
21D8:  MOVWF  FE9
21DA:  MOVFF  FF2,1CD
21DE:  BCF    FF2.7
21E0:  MOVLW  00
21E2:  CALL   037C
21E6:  TBLRD*-
21E8:  TBLRD*+
21EA:  MOVF   FF5,W
21EC:  MOVWF  FEE
21EE:  IORLW  00
21F0:  BNZ   21E8
21F2:  MOVLB  1
21F4:  BTFSC  xCD.7
21F6:  BSF    FF2.7
....................  
....................   if(on_command == 1) 
21F8:  MOVLB  0
21FA:  DECFSZ xEF,W
21FC:  BRA    2228
....................   	strcpy(transmit_stat, "ON"); 
21FE:  MOVLW  01
2200:  MOVWF  FEA
2202:  MOVLW  9B
2204:  MOVWF  FE9
2206:  MOVFF  FF2,1CD
220A:  BCF    FF2.7
220C:  MOVLW  00
220E:  CALL   035E
2212:  TBLRD*-
2214:  TBLRD*+
2216:  MOVF   FF5,W
2218:  MOVWF  FEE
221A:  IORLW  00
221C:  BNZ   2214
221E:  MOVLB  1
2220:  BTFSC  xCD.7
2222:  BSF    FF2.7
2224:  BRA    224E
2226:  MOVLB  0
....................   else  
....................   	strcpy(transmit_stat, "OFF"); 
2228:  MOVLW  01
222A:  MOVWF  FEA
222C:  MOVLW  9B
222E:  MOVWF  FE9
2230:  MOVFF  FF2,1CD
2234:  BCF    FF2.7
2236:  MOVLW  00
2238:  CALL   037C
223C:  TBLRD*-
223E:  TBLRD*+
2240:  MOVF   FF5,W
2242:  MOVWF  FEE
2244:  IORLW  00
2246:  BNZ   223E
2248:  MOVLB  1
224A:  BTFSC  xCD.7
224C:  BSF    FF2.7
....................  
....................   if(bit_mode == 1) 
224E:  MOVLB  0
2250:  DECFSZ xF0,W
2252:  BRA    227E
....................   	strcpy(bit_mode_stat, "START"); 
2254:  MOVLW  01
2256:  MOVWF  FEA
2258:  MOVLW  A6
225A:  MOVWF  FE9
225C:  MOVFF  FF2,1CD
2260:  BCF    FF2.7
2262:  MOVLW  00
2264:  CALL   039A
2268:  TBLRD*-
226A:  TBLRD*+
226C:  MOVF   FF5,W
226E:  MOVWF  FEE
2270:  IORLW  00
2272:  BNZ   226A
2274:  MOVLB  1
2276:  BTFSC  xCD.7
2278:  BSF    FF2.7
227A:  BRA    22A4
227C:  MOVLB  0
....................   else  
....................   	strcpy(bit_mode_stat, "STOP"); 
227E:  MOVLW  01
2280:  MOVWF  FEA
2282:  MOVLW  A6
2284:  MOVWF  FE9
2286:  MOVFF  FF2,1CD
228A:  BCF    FF2.7
228C:  MOVLW  00
228E:  CALL   03BA
2292:  TBLRD*-
2294:  TBLRD*+
2296:  MOVF   FF5,W
2298:  MOVWF  FEE
229A:  IORLW  00
229C:  BNZ   2294
229E:  MOVLB  1
22A0:  BTFSC  xCD.7
22A2:  BSF    FF2.7
....................  
....................   UINT LD = input(PLL1_LD); 
....................  
....................   if(LD) 
*
22AC:  MOVF   xCB,W
22AE:  IORWF  xCC,W
22B0:  BZ    22DC
.................... 	strcpy(lock_stat, "LOCK"); 
22B2:  MOVLW  01
22B4:  MOVWF  FEA
22B6:  MOVLW  B1
22B8:  MOVWF  FE9
22BA:  MOVFF  FF2,1CD
22BE:  BCF    FF2.7
22C0:  MOVLW  00
22C2:  MOVLB  0
22C4:  CALL   03DA
22C8:  TBLRD*-
22CA:  TBLRD*+
22CC:  MOVF   FF5,W
22CE:  MOVWF  FEE
22D0:  IORLW  00
22D2:  BNZ   22CA
22D4:  MOVLB  1
22D6:  BTFSC  xCD.7
22D8:  BSF    FF2.7
22DA:  BRA    2304
....................   else 
....................     strcpy(lock_stat, "NOT LOCK"); 
22DC:  MOVLW  01
22DE:  MOVWF  FEA
22E0:  MOVLW  B1
22E2:  MOVWF  FE9
22E4:  MOVFF  FF2,1CD
22E8:  BCF    FF2.7
22EA:  MOVLW  00
22EC:  MOVLB  0
22EE:  CALL   03FA
22F2:  TBLRD*-
22F4:  TBLRD*+
22F6:  MOVF   FF5,W
22F8:  MOVWF  FEE
22FA:  IORLW  00
22FC:  BNZ   22F4
22FE:  MOVLB  1
2300:  BTFSC  xCD.7
2302:  BSF    FF2.7
....................  
....................  
....................   if(setup.power_level == 1) 
2304:  MOVLB  0
2306:  DECFSZ xA5,W
2308:  BRA    2338
230A:  MOVF   xA6,F
230C:  BNZ   2338
.................... 	strcpy(power_stat, "HIGH"); 
230E:  MOVLW  01
2310:  MOVWF  FEA
2312:  MOVLW  BC
2314:  MOVWF  FE9
2316:  MOVFF  FF2,1CD
231A:  BCF    FF2.7
231C:  MOVLW  00
231E:  CALL   041E
2322:  TBLRD*-
2324:  TBLRD*+
2326:  MOVF   FF5,W
2328:  MOVWF  FEE
232A:  IORLW  00
232C:  BNZ   2324
232E:  MOVLB  1
2330:  BTFSC  xCD.7
2332:  BSF    FF2.7
2334:  BRA    235E
2336:  MOVLB  0
....................   else 
....................     strcpy(power_stat, "LOW"); 
2338:  MOVLW  01
233A:  MOVWF  FEA
233C:  MOVLW  BC
233E:  MOVWF  FE9
2340:  MOVFF  FF2,1CD
2344:  BCF    FF2.7
2346:  MOVLW  00
2348:  CALL   043E
234C:  TBLRD*-
234E:  TBLRD*+
2350:  MOVF   FF5,W
2352:  MOVWF  FEE
2354:  IORLW  00
2356:  BNZ   234E
2358:  MOVLB  1
235A:  BTFSC  xCD.7
235C:  BSF    FF2.7
....................   
....................  
....................  
....................  
....................   sprintf(buf, "\r\nFREQ=%lu, REV=%s, LIGHT=%s, FWD=%ludBM, TEMP=%5.1f, TRANSMIT=%s, ID=%lu, DC=%02lu%02u, VER %ls, ", 
....................           setup.frequency, revstat, light_stat, fpwr, temp, transmit_stat, setup.unit_ID, setup.year, setup.week, VERSION_V); 
235E:  MOVLW  01
2360:  MOVLB  0
2362:  MOVWF  xF4
2364:  MOVLW  45
2366:  MOVWF  xF3
2368:  MOVLW  50
236A:  MOVWF  FF6
236C:  MOVLW  06
236E:  MOVWF  FF7
2370:  MOVLW  07
2372:  MOVLB  1
2374:  MOVWF  xCD
2376:  MOVLB  0
2378:  CALL   1B58
237C:  MOVLW  10
237E:  MOVWF  FE9
2380:  MOVFF  A4,1CE
2384:  MOVFF  A3,1CD
2388:  CALL   1B80
238C:  MOVLW  5A
238E:  MOVWF  FF6
2390:  MOVLW  06
2392:  MOVWF  FF7
2394:  MOVLW  06
2396:  MOVLB  1
2398:  MOVWF  xCD
239A:  MOVLB  0
239C:  CALL   1B58
23A0:  MOVLW  01
23A2:  MOVWF  FEA
23A4:  MOVLW  85
23A6:  MOVWF  FE9
23A8:  RCALL  1C3C
23AA:  MOVLW  62
23AC:  MOVWF  FF6
23AE:  MOVLW  06
23B0:  MOVWF  FF7
23B2:  MOVLW  08
23B4:  MOVLB  1
23B6:  MOVWF  xCD
23B8:  MOVLB  0
23BA:  CALL   1B58
23BE:  MOVLW  01
23C0:  MOVWF  FEA
23C2:  MOVLW  90
23C4:  MOVWF  FE9
23C6:  RCALL  1C3C
23C8:  MOVLW  6C
23CA:  MOVWF  FF6
23CC:  MOVLW  06
23CE:  MOVWF  FF7
23D0:  MOVLW  06
23D2:  MOVLB  1
23D4:  MOVWF  xCD
23D6:  MOVLB  0
23D8:  CALL   1B58
23DC:  MOVLW  10
23DE:  MOVWF  FE9
23E0:  MOVFF  140,1CE
23E4:  MOVFF  13F,1CD
23E8:  CALL   1B80
23EC:  MOVLW  75
23EE:  MOVWF  FF6
23F0:  MOVLW  06
23F2:  MOVWF  FF7
23F4:  MOVLW  0A
23F6:  MOVLB  1
23F8:  MOVWF  xCD
23FA:  MOVLB  0
23FC:  CALL   1B58
2400:  MOVLW  04
2402:  MOVWF  FE9
2404:  MOVFF  1CA,1D0
2408:  MOVFF  1C9,1CF
240C:  MOVFF  1C8,1CE
2410:  MOVFF  1C7,1CD
2414:  MOVLW  01
2416:  MOVLB  1
2418:  MOVWF  xD1
241A:  MOVLB  0
241C:  RCALL  1CA4
241E:  MOVLW  84
2420:  MOVWF  FF6
2422:  MOVLW  06
2424:  MOVWF  FF7
2426:  MOVLW  0B
2428:  MOVLB  1
242A:  MOVWF  xCD
242C:  MOVLB  0
242E:  CALL   1B58
2432:  MOVLW  01
2434:  MOVWF  FEA
2436:  MOVLW  9B
2438:  MOVWF  FE9
243A:  RCALL  1C3C
243C:  MOVLW  91
243E:  MOVWF  FF6
2440:  MOVLW  06
2442:  MOVWF  FF7
2444:  MOVLW  05
2446:  MOVLB  1
2448:  MOVWF  xCD
244A:  MOVLB  0
244C:  CALL   1B58
2450:  MOVLW  10
2452:  MOVWF  FE9
2454:  MOVFF  E2,1CE
2458:  MOVFF  E1,1CD
245C:  CALL   1B80
2460:  MOVLW  99
2462:  MOVWF  FF6
2464:  MOVLW  06
2466:  MOVWF  FF7
2468:  MOVLW  05
246A:  MOVLB  1
246C:  MOVWF  xCD
246E:  MOVLB  0
2470:  CALL   1B58
2474:  MOVLW  0B
2476:  MOVWF  FE9
2478:  MOVFF  DF,1CE
247C:  MOVFF  DE,1CD
2480:  CALL   1B80
2484:  MOVFF  E0,1CD
2488:  MOVLW  01
248A:  MOVLB  1
248C:  MOVWF  xCE
248E:  MOVLB  0
2490:  BRA    1E7A
2492:  MOVLW  A7
2494:  MOVWF  FF6
2496:  MOVLW  06
2498:  MOVWF  FF7
249A:  MOVLW  06
249C:  MOVLB  1
249E:  MOVWF  xCD
24A0:  MOVLB  0
24A2:  CALL   1B58
24A6:  MOVLW  B4
24A8:  MOVWF  FF6
24AA:  MOVLW  06
24AC:  MOVWF  FF7
24AE:  BRA    1EF8
24B0:  MOVLW  2C
24B2:  MOVLB  1
24B4:  MOVWF  xDA
24B6:  MOVLB  0
24B8:  CALL   1B38
24BC:  MOVLW  20
24BE:  MOVLB  1
24C0:  MOVWF  xDA
24C2:  MOVLB  0
24C4:  CALL   1B38
....................   COM1_send_str(buf); 
24C8:  MOVLW  01
24CA:  MOVLB  1
24CC:  MOVWF  xCE
24CE:  MOVLW  45
24D0:  MOVWF  xCD
24D2:  MOVLB  0
24D4:  CALL   0CA4
....................   sprintf(buf, "BIT MODE=%s, SYNTH LOCK=%s, POWER=%s, MODULE TYPE=TX,",bit_mode_stat, lock_stat, power_stat); 
24D8:  MOVLW  01
24DA:  MOVWF  xF4
24DC:  MOVLW  45
24DE:  MOVWF  xF3
24E0:  MOVLW  BA
24E2:  MOVWF  FF6
24E4:  MOVLW  06
24E6:  MOVWF  FF7
24E8:  MOVLW  09
24EA:  MOVLB  1
24EC:  MOVWF  xCD
24EE:  MOVLB  0
24F0:  CALL   1B58
24F4:  MOVLW  01
24F6:  MOVWF  FEA
24F8:  MOVLW  A6
24FA:  MOVWF  FE9
24FC:  CALL   1C3C
2500:  MOVLW  C5
2502:  MOVWF  FF6
2504:  MOVLW  06
2506:  MOVWF  FF7
2508:  MOVLW  0D
250A:  MOVLB  1
250C:  MOVWF  xCD
250E:  MOVLB  0
2510:  CALL   1B58
2514:  MOVLW  01
2516:  MOVWF  FEA
2518:  MOVLW  B1
251A:  MOVWF  FE9
251C:  CALL   1C3C
2520:  MOVLW  D4
2522:  MOVWF  FF6
2524:  MOVLW  06
2526:  MOVWF  FF7
2528:  MOVLW  08
252A:  MOVLB  1
252C:  MOVWF  xCD
252E:  MOVLB  0
2530:  CALL   1B58
2534:  MOVLW  01
2536:  MOVWF  FEA
2538:  MOVLW  BC
253A:  MOVWF  FE9
253C:  CALL   1C3C
2540:  MOVLW  DE
2542:  MOVWF  FF6
2544:  MOVLW  06
2546:  MOVWF  FF7
2548:  MOVLW  11
254A:  MOVLB  1
254C:  MOVWF  xCD
254E:  MOVLB  0
2550:  CALL   1B58
....................  
....................   COM1_send_str(buf); 
2554:  MOVLW  01
2556:  MOVLB  1
2558:  MOVWF  xCE
255A:  MOVLW  45
255C:  MOVWF  xCD
255E:  MOVLB  0
2560:  CALL   0CA4
2564:  GOTO   34F4 (RETURN)
....................  
....................   } 
....................  
.................... //---------------------------------------------------------------------------- 
.................... bit set_power_level(void) 
....................   { 
....................   UINT idx; 
....................   idx = get_int(); 
*
15CC:  RCALL  13DC
15CE:  MOVFF  02,13E
15D2:  MOVFF  01,13D
....................   if (idx < 2) 
15D6:  MOVLB  1
15D8:  MOVF   x3E,F
15DA:  BNZ   15F0
15DC:  MOVF   x3D,W
15DE:  SUBLW  01
15E0:  BNC   15F0
....................    { 
....................     setup.power_level = idx; 
15E2:  MOVFF  13E,A6
15E6:  MOVFF  13D,A5
....................     return 1; 
15EA:  MOVLW  01
15EC:  MOVWF  01
15EE:  BRA    15F4
....................     } 
....................   return 0; 
15F0:  MOVLW  00
15F2:  MOVWF  01
15F4:  MOVLB  0
15F6:  GOTO   3002 (RETURN)
....................   } 
.................... //---------------------------------------------------------------------------- 
.................... /*UINT meter_out(void) 
....................   { 
....................   UINT meter; 
....................   meter = get_int(); 
....................   if(meter && meter<=200) 
....................   { 
....................     return meter; 
....................   } 
.................... return 0; 
....................  
....................   } 
....................  
....................  
.................... */ 
.................... //---------------------------------------------------------------------------- 
.................... // command format: 
.................... //   $<cmd> [<number>[,<number>]]<cr> 
.................... // where: 
.................... //    <cmd>       a two letter operation specifier 
.................... //    <number>    value to be used in operation 
.................... //    <cr>        0x0D character ending command string 
.................... // 
.................... UCHAR process_dollar_commands(void) 
....................   { 
....................   UCHAR chr, idx, addr; 
....................   ULONG freq; 
....................   UINT  value;// meter1, meter2; 
....................   chr = 2; 
*
2B76:  MOVLW  02
2B78:  MOVLB  1
2B7A:  MOVWF  x26
....................   comm_ptr = 0; 
2B7C:  MOVLB  0
2B7E:  CLRF   xED
....................   UINT year, week; 
....................   //int16 dac_val; 
....................   switch (toupper(get_char())) 
2B80:  CALL   1136
2B84:  MOVFF  02,13E
2B88:  MOVFF  01,13D
2B8C:  MOVLB  1
2B8E:  MOVF   x3E,F
2B90:  BNZ   2B98
2B92:  MOVF   x3D,W
2B94:  SUBLW  60
2B96:  BC    2BA8
2B98:  MOVF   x3E,F
2B9A:  BNZ   2BA8
2B9C:  MOVF   x3D,W
2B9E:  SUBLW  7A
2BA0:  BNC   2BA8
2BA2:  MOVF   x3D,W
2BA4:  ANDLW  DF
2BA6:  BRA    2BAA
2BA8:  MOVF   x3D,W
2BAA:  XORLW  48
2BAC:  MOVLB  0
2BAE:  BZ    2C08
2BB0:  XORLW  77
2BB2:  BZ    2C08
2BB4:  XORLW  79
2BB6:  BZ    2C14
2BB8:  XORLW  09
2BBA:  BTFSC  FD8.2
2BBC:  BRA    2CE8
2BBE:  XORLW  1B
2BC0:  BTFSC  FD8.2
2BC2:  BRA    2DCA
2BC4:  XORLW  16
2BC6:  BTFSC  FD8.2
2BC8:  BRA    2E76
2BCA:  XORLW  12
2BCC:  BTFSC  FD8.2
2BCE:  BRA    2F52
2BD0:  XORLW  1C
2BD2:  BTFSC  FD8.2
2BD4:  BRA    3010
2BD6:  XORLW  1F
2BD8:  BTFSC  FD8.2
2BDA:  BRA    30F4
2BDC:  XORLW  62
2BDE:  BTFSC  FD8.2
2BE0:  GOTO   33F4
2BE4:  XORLW  03
2BE6:  BTFSC  FD8.2
2BE8:  GOTO   3460
2BEC:  XORLW  01
2BEE:  BTFSC  FD8.2
2BF0:  GOTO   34C8
2BF4:  XORLW  62
2BF6:  BTFSC  FD8.2
2BF8:  GOTO   34D6
2BFC:  XORLW  03
2BFE:  BTFSC  FD8.2
2C00:  GOTO   34DC
2C04:  GOTO   34E2
....................     { 
....................     case 'H': case '?': 
....................       list_help(); 
2C08:  GOTO   1152
....................       return 0; 
2C0C:  MOVLW  00
2C0E:  MOVWF  01
2C10:  GOTO   34F8
....................    case 'F': 
....................       freq = get_frequency(); 
2C14:  GOTO   149E
2C18:  MOVLB  1
2C1A:  CLRF   x2C
2C1C:  CLRF   x2B
2C1E:  MOVFF  02,12A
2C22:  MOVFF  01,129
.................... 	  if (freq >= FRQ_HI_BOT && freq <= FRQ_HI_TOP) 
2C26:  MOVF   x2C,F
2C28:  BNZ   2C3E
2C2A:  MOVF   x2B,F
2C2C:  BNZ   2C3E
2C2E:  MOVF   x2A,W
2C30:  SUBLW  15
2C32:  BC    2CA8
2C34:  XORLW  FF
2C36:  BNZ   2C3E
2C38:  MOVF   x29,W
2C3A:  SUBLW  2A
2C3C:  BC    2CA8
2C3E:  MOVF   x2C,F
2C40:  BNZ   2CA8
2C42:  MOVF   x2B,F
2C44:  BNZ   2CA8
2C46:  MOVF   x2A,W
2C48:  SUBLW  16
2C4A:  BNC   2CA8
2C4C:  BNZ   2C54
2C4E:  MOVF   x29,W
2C50:  SUBLW  F3
2C52:  BNC   2CA8
....................          	{ 
....................              setup.frequency = freq; 
2C54:  MOVFF  12A,A4
2C58:  MOVFF  129,A3
....................              PLL1_compute_freq_parameters(freq * 10); 
2C5C:  MOVFF  12C,154
2C60:  MOVFF  12B,153
2C64:  MOVFF  12A,152
2C68:  MOVFF  129,151
2C6C:  CLRF   x58
2C6E:  CLRF   x57
2C70:  CLRF   x56
2C72:  MOVLW  0A
2C74:  MOVWF  x55
2C76:  MOVLB  0
2C78:  CALL   0A40
2C7C:  MOVFF  01,13E
2C80:  MOVFF  00,13D
2C84:  MOVFF  01,144
2C88:  MOVFF  00,143
2C8C:  CALL   0B2E
....................              PLL1_update();              
2C90:  CALL   0944
....................              allow_write = 2975; 
2C94:  MOVLW  0B
2C96:  MOVWF  xE4
2C98:  MOVLW  9F
2C9A:  MOVWF  xE3
....................              write_setup(); 
2C9C:  CALL   1528
....................              update_all(); 
2CA0:  CALL   0C6A
....................          	} 
2CA4:  BRA    2CE4
2CA6:  MOVLB  1
....................       else 
....................          		COM1_send_str("\r\n$FAIL\r\n"); 
2CA8:  MOVLW  01
2CAA:  MOVWF  FEA
2CAC:  MOVLW  33
2CAE:  MOVWF  FE9
2CB0:  MOVFF  FF2,13D
2CB4:  BCF    FF2.7
2CB6:  MOVLW  0A
2CB8:  MOVWF  01
2CBA:  CLRF   FF7
2CBC:  MOVLW  00
2CBE:  MOVLB  0
2CC0:  CALL   045C
2CC4:  TBLRD*-
2CC6:  TBLRD*+
2CC8:  MOVFF  FF5,FEE
2CCC:  DECFSZ 01,F
2CCE:  BRA    2CC6
2CD0:  MOVLB  1
2CD2:  BTFSC  x3D.7
2CD4:  BSF    FF2.7
2CD6:  MOVLW  01
2CD8:  MOVWF  xCE
2CDA:  MOVLW  33
2CDC:  MOVWF  xCD
2CDE:  MOVLB  0
2CE0:  CALL   0CA4
.................... 	  break; 
2CE4:  GOTO   34F4
....................  
.................... /*///////////////in case of freq range depends on power level ($p) 
....................       if(setup.power_level) 
.................... 		{ 
.................... 			if (freq >= FRQ_HI_BOT && freq <= FRQ_HI_TOP) 
....................          	{ 
....................              setup.frequency = freq; 
....................              PLL1_compute_freq_parameters(freq * 10); 
....................              PLL1_update();              
....................              allow_write = 2975; 
....................              write_setup(); 
....................              update_all(); 
....................          	} 
....................       		else 
....................          		COM1_send_str("\r\n$FAIL\r\n"); 
....................   		} 
.................... 		else 
....................     	{ 
.................... 		    if (freq >= FRQ_LO_BOT && freq <= FRQ_LO_TOP) 
....................          	{ 
....................               setup.frequency = freq; 
....................               PLL1_compute_freq_parameters(freq * 10); 
....................               PLL1_update();              
....................             allow_write = 2975; 
....................              write_setup(); 
....................              update_all(); 
....................          	} 
....................       		else 
....................          		COM1_send_str("\r\n$FAIL\r\n"); 
....................      
....................     	} 
....................       break; 
.................... *///////////////////////////////////////////////////////////////////////       
....................     /*  case 'M': 
....................         idx = get_int(); 
....................         if(idx ==1) 
....................           { 
....................           value = get_int(); 
....................           meter1 = value; 
....................           } 
....................           if(idx == 2) 
....................             { 
....................             value = get_int(); 
....................             meter2 = value; 
....................             } 
....................             break; 
.................... */ 
....................     case 'O': 
....................       if (toupper(get_char()) == 'N') 
2CE8:  CALL   1136
2CEC:  MOVFF  02,13E
2CF0:  MOVFF  01,13D
2CF4:  MOVLB  1
2CF6:  MOVF   x3E,F
2CF8:  BNZ   2D00
2CFA:  MOVF   x3D,W
2CFC:  SUBLW  60
2CFE:  BC    2D10
2D00:  MOVF   x3E,F
2D02:  BNZ   2D10
2D04:  MOVF   x3D,W
2D06:  SUBLW  7A
2D08:  BNC   2D10
2D0A:  MOVF   x3D,W
2D0C:  ANDLW  DF
2D0E:  BRA    2D12
2D10:  MOVF   x3D,W
2D12:  SUBLW  4E
2D14:  BNZ   2D8A
....................         { 
....................         idx = get_int(); 
2D16:  MOVLB  0
2D18:  CALL   13DC
2D1C:  MOVFF  01,127
....................         if (idx <2) 
2D20:  MOVLB  1
2D22:  MOVF   x27,W
2D24:  SUBLW  01
2D26:  BNC   2D4A
....................           { 
....................           if (idx) 
2D28:  MOVF   x27,F
2D2A:  BZ    2D3C
....................             { 
.................... 			//output_high(PLL1_CE); 
.................... 			PLL1_ON(); 
2D2C:  MOVLB  0
2D2E:  GOTO   1550
....................             on_command = 1; 
2D32:  MOVLW  01
2D34:  MOVWF  xEF
.................... 			output_low(LED2); 
2D36:  BCF    F8A.4
....................             } 
2D38:  BRA    2D46
2D3A:  MOVLB  1
....................           else 
....................             { 
.................... 			//output_low(PLL1_CE); 
.................... 			PLL1_OFF(); 
2D3C:  MOVLB  0
2D3E:  GOTO   158E
....................             on_command = 0; 
2D42:  CLRF   xEF
.................... 			output_high(LED2); 
2D44:  BSF    F8A.4
....................             } 
....................           } 
2D46:  BRA    2D86
2D48:  MOVLB  1
....................       else 
....................          COM1_send_str("\r\n$FAIL\r\n"); 
2D4A:  MOVLW  01
2D4C:  MOVWF  FEA
2D4E:  MOVLW  33
2D50:  MOVWF  FE9
2D52:  MOVFF  FF2,13D
2D56:  BCF    FF2.7
2D58:  MOVLW  0A
2D5A:  MOVWF  01
2D5C:  CLRF   FF7
2D5E:  MOVLW  00
2D60:  MOVLB  0
2D62:  CALL   045C
2D66:  TBLRD*-
2D68:  TBLRD*+
2D6A:  MOVFF  FF5,FEE
2D6E:  DECFSZ 01,F
2D70:  BRA    2D68
2D72:  MOVLB  1
2D74:  BTFSC  x3D.7
2D76:  BSF    FF2.7
2D78:  MOVLW  01
2D7A:  MOVWF  xCE
2D7C:  MOVLW  33
2D7E:  MOVWF  xCD
2D80:  MOVLB  0
2D82:  CALL   0CA4
....................       } 
2D86:  BRA    2DC6
2D88:  MOVLB  1
....................    else 
....................       COM1_send_str("\r\n$FAIL\r\n");          
2D8A:  MOVLW  01
2D8C:  MOVWF  FEA
2D8E:  MOVLW  33
2D90:  MOVWF  FE9
2D92:  MOVFF  FF2,13D
2D96:  BCF    FF2.7
2D98:  MOVLW  0A
2D9A:  MOVWF  01
2D9C:  CLRF   FF7
2D9E:  MOVLW  00
2DA0:  MOVLB  0
2DA2:  CALL   045C
2DA6:  TBLRD*-
2DA8:  TBLRD*+
2DAA:  MOVFF  FF5,FEE
2DAE:  DECFSZ 01,F
2DB0:  BRA    2DA8
2DB2:  MOVLB  1
2DB4:  BTFSC  x3D.7
2DB6:  BSF    FF2.7
2DB8:  MOVLW  01
2DBA:  MOVWF  xCE
2DBC:  MOVLW  33
2DBE:  MOVWF  xCD
2DC0:  MOVLB  0
2DC2:  CALL   0CA4
....................       break; 
2DC6:  GOTO   34F4
....................  
.................... 	case 'T':							//command TR - return T in case of TX, return R in case of RX 
.................... 	  if (toupper(get_char()) == 'R') 
2DCA:  CALL   1136
2DCE:  MOVFF  02,13E
2DD2:  MOVFF  01,13D
2DD6:  MOVLB  1
2DD8:  MOVF   x3E,F
2DDA:  BNZ   2DE2
2DDC:  MOVF   x3D,W
2DDE:  SUBLW  60
2DE0:  BC    2DF2
2DE2:  MOVF   x3E,F
2DE4:  BNZ   2DF2
2DE6:  MOVF   x3D,W
2DE8:  SUBLW  7A
2DEA:  BNC   2DF2
2DEC:  MOVF   x3D,W
2DEE:  ANDLW  DF
2DF0:  BRA    2DF4
2DF2:  MOVF   x3D,W
2DF4:  SUBLW  52
2DF6:  BNZ   2E38
.................... 		COM1_send_str("\r\n$T\r\n"); 
2DF8:  MOVLW  01
2DFA:  MOVWF  FEA
2DFC:  MOVLW  33
2DFE:  MOVWF  FE9
2E00:  MOVFF  FF2,13D
2E04:  BCF    FF2.7
2E06:  MOVLW  07
2E08:  MOVWF  01
2E0A:  CLRF   FF7
2E0C:  MOVLW  00
2E0E:  MOVLB  0
2E10:  CALL   0480
2E14:  TBLRD*-
2E16:  TBLRD*+
2E18:  MOVFF  FF5,FEE
2E1C:  DECFSZ 01,F
2E1E:  BRA    2E16
2E20:  MOVLB  1
2E22:  BTFSC  x3D.7
2E24:  BSF    FF2.7
2E26:  MOVLW  01
2E28:  MOVWF  xCE
2E2A:  MOVLW  33
2E2C:  MOVWF  xCD
2E2E:  MOVLB  0
2E30:  CALL   0CA4
2E34:  BRA    2E74
2E36:  MOVLB  1
.................... 	  else 
.................... 		COM1_send_str("\r\n$FAIL\r\n"); 
2E38:  MOVLW  01
2E3A:  MOVWF  FEA
2E3C:  MOVLW  33
2E3E:  MOVWF  FE9
2E40:  MOVFF  FF2,13D
2E44:  BCF    FF2.7
2E46:  MOVLW  0A
2E48:  MOVWF  01
2E4A:  CLRF   FF7
2E4C:  MOVLW  00
2E4E:  MOVLB  0
2E50:  CALL   045C
2E54:  TBLRD*-
2E56:  TBLRD*+
2E58:  MOVFF  FF5,FEE
2E5C:  DECFSZ 01,F
2E5E:  BRA    2E56
2E60:  MOVLB  1
2E62:  BTFSC  x3D.7
2E64:  BSF    FF2.7
2E66:  MOVLW  01
2E68:  MOVWF  xCE
2E6A:  MOVLW  33
2E6C:  MOVWF  xCD
2E6E:  MOVLB  0
2E70:  CALL   0CA4
.................... 		break; 
2E74:  BRA    34F4
.................... 		 
....................  
....................  
....................     case 'B': 
....................       if (toupper(get_char()) == 'M') 
2E76:  CALL   1136
2E7A:  MOVFF  02,13E
2E7E:  MOVFF  01,13D
2E82:  MOVLB  1
2E84:  MOVF   x3E,F
2E86:  BNZ   2E8E
2E88:  MOVF   x3D,W
2E8A:  SUBLW  60
2E8C:  BC    2E9E
2E8E:  MOVF   x3E,F
2E90:  BNZ   2E9E
2E92:  MOVF   x3D,W
2E94:  SUBLW  7A
2E96:  BNC   2E9E
2E98:  MOVF   x3D,W
2E9A:  ANDLW  DF
2E9C:  BRA    2EA0
2E9E:  MOVF   x3D,W
2EA0:  SUBLW  4D
2EA2:  BNZ   2F14
....................         { 
....................         idx = get_int(); 
2EA4:  MOVLB  0
2EA6:  CALL   13DC
2EAA:  MOVFF  01,127
....................         if (idx <2) 
2EAE:  MOVLB  1
2EB0:  MOVF   x27,W
2EB2:  SUBLW  01
2EB4:  BNC   2ED4
....................           { 
....................           if (idx) 
2EB6:  MOVF   x27,F
2EB8:  BZ    2ECA
....................             { 
....................             bit_mode = 1; 
2EBA:  MOVLW  01
2EBC:  MOVLB  0
2EBE:  MOVWF  xF0
.................... 			output_high(BIT_MODE_EN); 
2EC0:  BSF    F8B.4
.................... 			count_1sec = 0; 
2EC2:  CLRF   xF2
2EC4:  CLRF   xF1
....................             } 
2EC6:  BRA    2ED0
2EC8:  MOVLB  1
....................           else 
....................             { 
....................             bit_mode = 0; 
2ECA:  MOVLB  0
2ECC:  CLRF   xF0
.................... 			output_low(BIT_MODE_EN); 
2ECE:  BCF    F8B.4
....................             } 
....................           } 
2ED0:  BRA    2F10
2ED2:  MOVLB  1
....................       else 
....................          COM1_send_str("\r\n$FAIL\r\n"); 
2ED4:  MOVLW  01
2ED6:  MOVWF  FEA
2ED8:  MOVLW  33
2EDA:  MOVWF  FE9
2EDC:  MOVFF  FF2,13D
2EE0:  BCF    FF2.7
2EE2:  MOVLW  0A
2EE4:  MOVWF  01
2EE6:  CLRF   FF7
2EE8:  MOVLW  00
2EEA:  MOVLB  0
2EEC:  CALL   045C
2EF0:  TBLRD*-
2EF2:  TBLRD*+
2EF4:  MOVFF  FF5,FEE
2EF8:  DECFSZ 01,F
2EFA:  BRA    2EF2
2EFC:  MOVLB  1
2EFE:  BTFSC  x3D.7
2F00:  BSF    FF2.7
2F02:  MOVLW  01
2F04:  MOVWF  xCE
2F06:  MOVLW  33
2F08:  MOVWF  xCD
2F0A:  MOVLB  0
2F0C:  CALL   0CA4
....................       } 
2F10:  BRA    2F50
2F12:  MOVLB  1
....................    else 
....................       COM1_send_str("\r\n$FAIL\r\n");          
2F14:  MOVLW  01
2F16:  MOVWF  FEA
2F18:  MOVLW  33
2F1A:  MOVWF  FE9
2F1C:  MOVFF  FF2,13D
2F20:  BCF    FF2.7
2F22:  MOVLW  0A
2F24:  MOVWF  01
2F26:  CLRF   FF7
2F28:  MOVLW  00
2F2A:  MOVLB  0
2F2C:  CALL   045C
2F30:  TBLRD*-
2F32:  TBLRD*+
2F34:  MOVFF  FF5,FEE
2F38:  DECFSZ 01,F
2F3A:  BRA    2F32
2F3C:  MOVLB  1
2F3E:  BTFSC  x3D.7
2F40:  BSF    FF2.7
2F42:  MOVLW  01
2F44:  MOVWF  xCE
2F46:  MOVLW  33
2F48:  MOVWF  xCD
2F4A:  MOVLB  0
2F4C:  CALL   0CA4
....................       break; 
2F50:  BRA    34F4
....................  
....................  
....................     case 'P': 
....................       if (toupper(peek_char()) == 'S') // $PS command 
2F52:  CALL   136E
2F56:  MOVFF  02,13E
2F5A:  MOVFF  01,13D
2F5E:  MOVLB  1
2F60:  MOVF   x3E,F
2F62:  BNZ   2F6A
2F64:  MOVF   x3D,W
2F66:  SUBLW  60
2F68:  BC    2F7A
2F6A:  MOVF   x3E,F
2F6C:  BNZ   2F7A
2F6E:  MOVF   x3D,W
2F70:  SUBLW  7A
2F72:  BNC   2F7A
2F74:  MOVF   x3D,W
2F76:  ANDLW  DF
2F78:  BRA    2F7C
2F7A:  MOVF   x3D,W
2F7C:  SUBLW  53
2F7E:  BNZ   2FFC
....................         { 
....................         get_char(); // get rid of 'S' 
2F80:  MOVLB  0
2F82:  CALL   1136
....................         idx = get_int(); 
2F86:  CALL   13DC
2F8A:  MOVFF  01,127
....................               if (idx <2) 
2F8E:  MOVLB  1
2F90:  MOVF   x27,W
2F92:  SUBLW  01
2F94:  BNC   2FBC
....................                { 
....................                 if (idx) 
2F96:  MOVF   x27,F
2F98:  BZ    2FA4
....................                    { 
....................                     pa_command  = 1; 
2F9A:  MOVLW  01
2F9C:  MOVLB  0
2F9E:  MOVWF  xEE
....................                    } 
2FA0:  BRA    2FA8
2FA2:  MOVLB  1
....................                  else 
....................                     { 
....................                  	pa_command  = 0; 
2FA4:  MOVLB  0
2FA6:  CLRF   xEE
....................                     } 
.................... 				 
.................... 					setup.power_amp = pa_command;   
2FA8:  MOVFF  EE,A2
.................... 					allow_write = 2975;           
2FAC:  MOVLW  0B
2FAE:  MOVWF  xE4
2FB0:  MOVLW  9F
2FB2:  MOVWF  xE3
....................          			write_setup(); 
2FB4:  CALL   1528
....................                  } 
2FB8:  BRA    2FF8
2FBA:  MOVLB  1
....................          		 else   
....................             		COM1_send_str("\r\n$FAIL\r\n");                
2FBC:  MOVLW  01
2FBE:  MOVWF  FEA
2FC0:  MOVLW  33
2FC2:  MOVWF  FE9
2FC4:  MOVFF  FF2,13D
2FC8:  BCF    FF2.7
2FCA:  MOVLW  0A
2FCC:  MOVWF  01
2FCE:  CLRF   FF7
2FD0:  MOVLW  00
2FD2:  MOVLB  0
2FD4:  CALL   045C
2FD8:  TBLRD*-
2FDA:  TBLRD*+
2FDC:  MOVFF  FF5,FEE
2FE0:  DECFSZ 01,F
2FE2:  BRA    2FDA
2FE4:  MOVLB  1
2FE6:  BTFSC  x3D.7
2FE8:  BSF    FF2.7
2FEA:  MOVLW  01
2FEC:  MOVWF  xCE
2FEE:  MOVLW  33
2FF0:  MOVWF  xCD
2FF2:  MOVLB  0
2FF4:  CALL   0CA4
....................          } 
2FF8:  BRA    3002
2FFA:  MOVLB  1
....................          else 										// $P command, set setup.power_level 
....................             set_power_level(); 
2FFC:  MOVLB  0
2FFE:  GOTO   15CC
.................... 			allow_write = 2975;          			 
3002:  MOVLW  0B
3004:  MOVWF  xE4
3006:  MOVLW  9F
3008:  MOVWF  xE3
....................          	write_setup(); 
300A:  CALL   1528
....................          break; 
300E:  BRA    34F4
....................  
....................     case 'L': 
....................       if (toupper(get_char()) == 'D') 
3010:  CALL   1136
3014:  MOVFF  02,13E
3018:  MOVFF  01,13D
301C:  MOVLB  1
301E:  MOVF   x3E,F
3020:  BNZ   3028
3022:  MOVF   x3D,W
3024:  SUBLW  60
3026:  BC    3038
3028:  MOVF   x3E,F
302A:  BNZ   3038
302C:  MOVF   x3D,W
302E:  SUBLW  7A
3030:  BNC   3038
3032:  MOVF   x3D,W
3034:  ANDLW  DF
3036:  BRA    303A
3038:  MOVF   x3D,W
303A:  SUBLW  44
303C:  BNZ   30B6
....................         { 
....................         idx = get_int(); 
303E:  MOVLB  0
3040:  CALL   13DC
3044:  MOVFF  01,127
....................         if (idx <2) 
3048:  MOVLB  1
304A:  MOVF   x27,W
304C:  SUBLW  01
304E:  BNC   3076
....................         { 
....................           if (idx) 
3050:  MOVF   x27,F
3052:  BZ    3060
....................             { 
....................             setup.meter_backlight = 1; 
3054:  MOVLW  01
3056:  MOVLB  0
3058:  MOVWF  xDD
....................             output_high(MET_EN); 
305A:  BSF    F8A.2
....................             } 
305C:  BRA    3066
305E:  MOVLB  1
....................           else 
....................             { 
....................             setup.meter_backlight = 0; 
3060:  MOVLB  0
3062:  CLRF   xDD
....................             output_low(MET_EN); 
3064:  BCF    F8A.2
....................             } 
.................... 			allow_write = 2975;          ////yehuda save LD command into EEPROM when changed 
3066:  MOVLW  0B
3068:  MOVWF  xE4
306A:  MOVLW  9F
306C:  MOVWF  xE3
....................          	write_setup(); 
306E:  CALL   1528
....................          } 
3072:  BRA    30B2
3074:  MOVLB  1
....................    else 
....................          COM1_send_str("\r\n$FAIL\r\n"); 
3076:  MOVLW  01
3078:  MOVWF  FEA
307A:  MOVLW  33
307C:  MOVWF  FE9
307E:  MOVFF  FF2,13D
3082:  BCF    FF2.7
3084:  MOVLW  0A
3086:  MOVWF  01
3088:  CLRF   FF7
308A:  MOVLW  00
308C:  MOVLB  0
308E:  CALL   045C
3092:  TBLRD*-
3094:  TBLRD*+
3096:  MOVFF  FF5,FEE
309A:  DECFSZ 01,F
309C:  BRA    3094
309E:  MOVLB  1
30A0:  BTFSC  x3D.7
30A2:  BSF    FF2.7
30A4:  MOVLW  01
30A6:  MOVWF  xCE
30A8:  MOVLW  33
30AA:  MOVWF  xCD
30AC:  MOVLB  0
30AE:  CALL   0CA4
....................         } 
30B2:  BRA    30F2
30B4:  MOVLB  1
....................    else 
....................       COM1_send_str("\r\n$FAIL\r\n"); 
30B6:  MOVLW  01
30B8:  MOVWF  FEA
30BA:  MOVLW  33
30BC:  MOVWF  FE9
30BE:  MOVFF  FF2,13D
30C2:  BCF    FF2.7
30C4:  MOVLW  0A
30C6:  MOVWF  01
30C8:  CLRF   FF7
30CA:  MOVLW  00
30CC:  MOVLB  0
30CE:  CALL   045C
30D2:  TBLRD*-
30D4:  TBLRD*+
30D6:  MOVFF  FF5,FEE
30DA:  DECFSZ 01,F
30DC:  BRA    30D4
30DE:  MOVLB  1
30E0:  BTFSC  x3D.7
30E2:  BSF    FF2.7
30E4:  MOVLW  01
30E6:  MOVWF  xCE
30E8:  MOVLW  33
30EA:  MOVWF  xCD
30EC:  MOVLB  0
30EE:  CALL   0CA4
....................       break; 
30F2:  BRA    34F4
....................  
.................... /////////////////DAC DEBUG yehuda//////////////////// 
.................... /* 
.................... $C0 - set all 0 
.................... $C1 xxx - set A to xxx  
.................... $C2 xxx - set B to xxx   
.................... $C3 xxx - set C to xxx  
.................... $C4 xxx - set D to xxx  
.................... $C5 - set all to 1v 
.................... $C6 - set all to 2v 
.................... $C7 - set all to 3v 
.................... */ 
.................... /* 
....................    case 'C': 
.................... 	{ 
.................... 		idx = get_int(); 
.................... 		if(idx == 0) 
.................... 		{ 
.................... 			setup.dac_val[0] = 0; 
.................... 			setup.dac_val[1] = 0; 
.................... 			setup.dac_val[2] = 0; 
.................... 			setup.dac_val[3] = 0; 
.................... 			set_AD5314(DAC_NEG_VOLT, setup.dac_val[0]); 
.................... 			set_AD5314(DAC_PRE_AMP_POS, setup.dac_val[1]); 
.................... 			set_AD5314(DAC_UP_GAI_COUNT, setup.dac_val[2]); 
.................... 			set_AD5314(DAC_OCXO_REF, setup.dac_val[3]); 
.................... 			allow_write = 2975; 
....................           	write_setup(); 
.................... 		} 
.................... 		if(idx == 1) 
.................... 		{ 
.................... 			//dac_val = get_int(); 
.................... 			temp_dac_val = get_int(); 
.................... 			setup.dac_val[0] = temp_dac_val(); 
.................... 			set_AD5314(DAC_NEG_VOLT, setup.dac_val[0]); 
.................... 			allow_write = 2975; 
....................           	write_setup(); 
.................... 		} 
.................... 		if(idx == 2) 
.................... 		{ 
.................... 			//dac_val = get_int(); 
.................... 			temp_dac_val = get_int(); 
.................... 			setup.dac_val[1] = temp_dac_val; 
.................... 			set_AD5314(DAC_PRE_AMP_POS, setup.dac_val[1]); 
.................... 			allow_write = 2975; 
....................           	write_setup(); 
.................... 		} 
.................... 		if(idx == 3) 
.................... 		{ 
.................... 			//dac_val = get_int(); 
.................... 			temp_dac_val = get_int(); 
.................... 			setup.dac_val[2] = temp_dac_val; 
.................... 			set_AD5314(DAC_UP_GAI_COUNT, setup.dac_val[2]); 
.................... 			allow_write = 2975; 
....................           	write_setup(); 
.................... 		} 
.................... 		if(idx == 4) 
.................... 		{ 
.................... 			//dac_val = get_int(); 
.................... 			temp_dac_val = temp_dac_val; 
.................... 			setup.dac_val[3] = temp_dac_val; 
.................... 			set_AD5314(DAC_OCXO_REF, setup.dac_val[3]); 
.................... 			allow_write = 2975; 
....................           	write_setup(); 
.................... 		} 
.................... 		if(idx == 5) 
.................... 		{ 
.................... 			setup.dac_val[0] = 210; 
.................... 			setup.dac_val[1] = 210; 
.................... 			setup.dac_val[2] = 210; 
.................... 			setup.dac_val[3] = 210; 
.................... 			set_AD5314(DAC_NEG_VOLT, setup.dac_val[0]); 
.................... 			set_AD5314(DAC_PRE_AMP_POS, setup.dac_val[1]); 
.................... 			set_AD5314(DAC_UP_GAI_COUNT, setup.dac_val[2]); 
.................... 			set_AD5314(DAC_OCXO_REF, setup.dac_val[3]); 
.................... 			allow_write = 2975; 
....................           	write_setup(); 
.................... 		} 
.................... 		if(idx == 6) 
.................... 		{ 
.................... 			setup.dac_val[0] = 420; 
.................... 			setup.dac_val[1] = 420; 
.................... 			setup.dac_val[2] = 420; 
.................... 			setup.dac_val[3] = 420; 
.................... 			set_AD5314(DAC_NEG_VOLT, setup.dac_val[0]); 
.................... 			set_AD5314(DAC_PRE_AMP_POS, setup.dac_val[1]); 
.................... 			set_AD5314(DAC_UP_GAI_COUNT, setup.dac_val[2]); 
.................... 			set_AD5314(DAC_OCXO_REF, setup.dac_val[3]); 
.................... 			allow_write = 2975; 
....................           	write_setup(); 
.................... 		} 
.................... 		if(idx == 7) 
.................... 		{ 
.................... 			setup.dac_val[0] = 630; 
.................... 			setup.dac_val[1] = 630; 
.................... 			setup.dac_val[2] = 630; 
.................... 			setup.dac_val[3] = 630; 
.................... 			set_AD5314(DAC_NEG_VOLT, setup.dac_val[0]); 
.................... 			set_AD5314(DAC_PRE_AMP_POS, setup.dac_val[1]); 
.................... 			set_AD5314(DAC_UP_GAI_COUNT, setup.dac_val[2]); 
.................... 			set_AD5314(DAC_OCXO_REF, setup.dac_val[3]); 
.................... 			allow_write = 2975; 
....................           	write_setup(); 
.................... 		} 
.................... 	} 
.................... */ 
.................... /////////////////////////////////////////////////////////////////////// 
....................  
.................... /*  case 'M': 
.................... 		addr = get_int(); 
.................... 			if(addr) 
.................... 				{ 
.................... 				meter1(); 
.................... 				} 
.................... 				else 
.................... 					meter2(); 
....................             break; 
.................... */ 
....................  
....................     case 'S': // set tables 
....................       skip_spc(); 
30F4:  CALL   132E
....................       idx = get_char(); // get table designator 
30F8:  CALL   1136
30FC:  MOVFF  01,127
....................       addr = get_int(); // get table index 
3100:  CALL   13DC
3104:  MOVFF  01,128
....................       value = get_int(); // get value to put into table 
3108:  CALL   13DC
310C:  MOVFF  02,12E
3110:  MOVFF  01,12D
....................       switch (toupper(idx)) 
3114:  MOVLB  1
3116:  MOVF   x27,W
3118:  SUBLW  60
311A:  BC    3128
311C:  MOVF   x27,W
311E:  SUBLW  7A
3120:  BNC   3128
3122:  MOVF   x27,W
3124:  ANDLW  DF
3126:  BRA    312A
3128:  MOVF   x27,W
312A:  XORLW  4E
312C:  MOVLB  0
312E:  BZ    3148
3130:  XORLW  1E
3132:  BZ    3202
3134:  XORLW  02
3136:  BTFSC  FD8.2
3138:  BRA    32BC
313A:  XORLW  14
313C:  BTFSC  FD8.2
313E:  BRA    3336
3140:  XORLW  10
3142:  BTFSC  FD8.2
3144:  BRA    33E2
3146:  BRA    33F2
....................         { 
....................         case 'N': // negative voltage 
....................           if (addr < 2) 
3148:  MOVLB  1
314A:  MOVF   x28,W
314C:  SUBLW  01
314E:  BNC   31C0
....................          { 
.................... 			//value = value * 0.3103; 
.................... 			value = value * 0.21; 
3150:  MOVFF  12E,1CE
3154:  MOVFF  12D,1CD
3158:  MOVLB  0
315A:  CALL   15FA
315E:  MOVFF  03,1DD
3162:  MOVFF  02,1DC
3166:  MOVFF  01,1DB
316A:  MOVFF  00,1DA
316E:  MOVLW  3D
3170:  MOVLB  1
3172:  MOVWF  xE1
3174:  MOVLW  0A
3176:  MOVWF  xE0
3178:  MOVLW  57
317A:  MOVWF  xDF
317C:  MOVLW  7C
317E:  MOVWF  xDE
3180:  MOVLB  0
3182:  CALL   1630
3186:  MOVFF  03,140
318A:  MOVFF  02,13F
318E:  MOVFF  01,13E
3192:  MOVFF  00,13D
3196:  CALL   1726
319A:  MOVFF  02,12E
319E:  MOVFF  01,12D
....................             setup.negative_voltage[addr] = value; 
31A2:  BCF    FD8.0
31A4:  MOVLB  1
31A6:  RLCF   x28,W
31A8:  CLRF   03
31AA:  ADDLW  A7
31AC:  MOVWF  FE9
31AE:  MOVLW  00
31B0:  ADDWFC 03,W
31B2:  MOVWF  FEA
31B4:  MOVFF  12E,FEC
31B8:  MOVF   FED,F
31BA:  MOVFF  12D,FEF
....................          } 
31BE:  BRA    31FE
....................             else 
....................                  COM1_send_str("\r\n$FAIL\r\n"); 
31C0:  MOVLW  01
31C2:  MOVWF  FEA
31C4:  MOVLW  33
31C6:  MOVWF  FE9
31C8:  MOVFF  FF2,13D
31CC:  BCF    FF2.7
31CE:  MOVLW  0A
31D0:  MOVWF  01
31D2:  CLRF   FF7
31D4:  MOVLW  00
31D6:  MOVLB  0
31D8:  CALL   045C
31DC:  TBLRD*-
31DE:  TBLRD*+
31E0:  MOVFF  FF5,FEE
31E4:  DECFSZ 01,F
31E6:  BRA    31DE
31E8:  MOVLB  1
31EA:  BTFSC  x3D.7
31EC:  BSF    FF2.7
31EE:  MOVLW  01
31F0:  MOVWF  xCE
31F2:  MOVLW  33
31F4:  MOVWF  xCD
31F6:  MOVLB  0
31F8:  CALL   0CA4
31FC:  MOVLB  1
....................           break; 
31FE:  MOVLB  0
3200:  BRA    33F2
....................  
....................         case 'P': // positive voltage 
....................              if (addr <2) 
3202:  MOVLB  1
3204:  MOVF   x28,W
3206:  SUBLW  01
3208:  BNC   327A
....................               { 
....................               	//value = value * 0.3103; 
.................... 				value = value * 0.21; 
320A:  MOVFF  12E,1CE
320E:  MOVFF  12D,1CD
3212:  MOVLB  0
3214:  CALL   15FA
3218:  MOVFF  03,1DD
321C:  MOVFF  02,1DC
3220:  MOVFF  01,1DB
3224:  MOVFF  00,1DA
3228:  MOVLW  3D
322A:  MOVLB  1
322C:  MOVWF  xE1
322E:  MOVLW  0A
3230:  MOVWF  xE0
3232:  MOVLW  57
3234:  MOVWF  xDF
3236:  MOVLW  7C
3238:  MOVWF  xDE
323A:  MOVLB  0
323C:  CALL   1630
3240:  MOVFF  03,140
3244:  MOVFF  02,13F
3248:  MOVFF  01,13E
324C:  MOVFF  00,13D
3250:  CALL   1726
3254:  MOVFF  02,12E
3258:  MOVFF  01,12D
.................... 				setup.power_in[addr] = value; 
325C:  BCF    FD8.0
325E:  MOVLB  1
3260:  RLCF   x28,W
3262:  CLRF   03
3264:  ADDLW  AB
3266:  MOVWF  FE9
3268:  MOVLW  00
326A:  ADDWFC 03,W
326C:  MOVWF  FEA
326E:  MOVFF  12E,FEC
3272:  MOVF   FED,F
3274:  MOVFF  12D,FEF
....................               } 
3278:  BRA    32B8
....................            else 
....................               COM1_send_str("\r\n$FAIL\r\n"); 
327A:  MOVLW  01
327C:  MOVWF  FEA
327E:  MOVLW  33
3280:  MOVWF  FE9
3282:  MOVFF  FF2,13D
3286:  BCF    FF2.7
3288:  MOVLW  0A
328A:  MOVWF  01
328C:  CLRF   FF7
328E:  MOVLW  00
3290:  MOVLB  0
3292:  CALL   045C
3296:  TBLRD*-
3298:  TBLRD*+
329A:  MOVFF  FF5,FEE
329E:  DECFSZ 01,F
32A0:  BRA    3298
32A2:  MOVLB  1
32A4:  BTFSC  x3D.7
32A6:  BSF    FF2.7
32A8:  MOVLW  01
32AA:  MOVWF  xCE
32AC:  MOVLW  33
32AE:  MOVWF  xCD
32B0:  MOVLB  0
32B2:  CALL   0CA4
32B6:  MOVLB  1
....................           break; 
32B8:  MOVLB  0
32BA:  BRA    33F2
....................  
.................... //		case 'M': //  
.................... //          if (addr < 2) 
.................... //         { 
.................... //			//value = value * 0.3103; 
.................... //			value = value * 0.21; 
.................... //            setup.monitor_ctrl[addr] = value; 
.................... //         } 
.................... //            else 
.................... //                 COM1_send_str("\r\n$FAIL\r\n"); 
.................... //          break; 
....................  
....................  
....................  
....................         case 'R': // rev table 
....................          if (toupper(get_char()) == 'R') 
32BC:  CALL   1136
32C0:  MOVFF  02,13E
32C4:  MOVFF  01,13D
32C8:  MOVLB  1
32CA:  MOVF   x3E,F
32CC:  BNZ   32D4
32CE:  MOVF   x3D,W
32D0:  SUBLW  60
32D2:  BC    32E4
32D4:  MOVF   x3E,F
32D6:  BNZ   32E4
32D8:  MOVF   x3D,W
32DA:  SUBLW  7A
32DC:  BNC   32E4
32DE:  MOVF   x3D,W
32E0:  ANDLW  DF
32E2:  BRA    32E6
32E4:  MOVF   x3D,W
32E6:  SUBLW  52
32E8:  BNZ   32F4
....................          { 
....................             setup.reverse = value; 
32EA:  MOVFF  12E,DC
32EE:  MOVFF  12D,DB
....................          } 
32F2:  BRA    3332
....................          else 
....................             COM1_send_str("\r\n$FAIL\r\n"); 
32F4:  MOVLW  01
32F6:  MOVWF  FEA
32F8:  MOVLW  33
32FA:  MOVWF  FE9
32FC:  MOVFF  FF2,13D
3300:  BCF    FF2.7
3302:  MOVLW  0A
3304:  MOVWF  01
3306:  CLRF   FF7
3308:  MOVLW  00
330A:  MOVLB  0
330C:  CALL   045C
3310:  TBLRD*-
3312:  TBLRD*+
3314:  MOVFF  FF5,FEE
3318:  DECFSZ 01,F
331A:  BRA    3312
331C:  MOVLB  1
331E:  BTFSC  x3D.7
3320:  BSF    FF2.7
3322:  MOVLW  01
3324:  MOVWF  xCE
3326:  MOVLW  33
3328:  MOVWF  xCD
332A:  MOVLB  0
332C:  CALL   0CA4
3330:  MOVLB  1
....................           break; 
3332:  MOVLB  0
3334:  BRA    33F2
....................   
....................    case 'F': // forward table 
....................           if (addr < 12) 
3336:  MOVLB  1
3338:  MOVF   x28,W
333A:  SUBLW  0B
333C:  BNC   33A0
....................             { 
....................             setup.fwd_table[addr][0] = value; 
333E:  MOVF   x28,W
3340:  MULLW  04
3342:  MOVF   FF3,W
3344:  CLRF   03
3346:  ADDLW  AF
3348:  MOVWF  FE9
334A:  MOVLW  00
334C:  ADDWFC 03,W
334E:  MOVWF  FEA
3350:  MOVFF  12E,FEC
3354:  MOVF   FED,F
3356:  MOVFF  12D,FEF
....................             value = get_int(); 
335A:  MOVLB  0
335C:  CALL   13DC
3360:  MOVFF  02,12E
3364:  MOVFF  01,12D
....................             setup.fwd_table[addr][1] = value; 
3368:  MOVLB  1
336A:  MOVF   x28,W
336C:  MULLW  04
336E:  MOVF   FF3,W
3370:  CLRF   03
3372:  ADDLW  0D
3374:  MOVWF  x3D
3376:  MOVLW  00
3378:  ADDWFC 03,W
337A:  MOVWF  x3E
337C:  MOVLW  02
337E:  ADDWF  x3D,W
3380:  MOVWF  01
3382:  MOVLW  00
3384:  ADDWFC x3E,W
3386:  MOVWF  03
3388:  MOVF   01,W
338A:  ADDLW  A2
338C:  MOVWF  FE9
338E:  MOVLW  00
3390:  ADDWFC 03,W
3392:  MOVWF  FEA
3394:  MOVFF  12E,FEC
3398:  MOVF   FED,F
339A:  MOVFF  12D,FEF
....................             } 
339E:  BRA    33DE
....................              else 
....................                  COM1_send_str("\r\n$FAIL\r\n"); 
33A0:  MOVLW  01
33A2:  MOVWF  FEA
33A4:  MOVLW  33
33A6:  MOVWF  FE9
33A8:  MOVFF  FF2,13D
33AC:  BCF    FF2.7
33AE:  MOVLW  0A
33B0:  MOVWF  01
33B2:  CLRF   FF7
33B4:  MOVLW  00
33B6:  MOVLB  0
33B8:  CALL   045C
33BC:  TBLRD*-
33BE:  TBLRD*+
33C0:  MOVFF  FF5,FEE
33C4:  DECFSZ 01,F
33C6:  BRA    33BE
33C8:  MOVLB  1
33CA:  BTFSC  x3D.7
33CC:  BSF    FF2.7
33CE:  MOVLW  01
33D0:  MOVWF  xCE
33D2:  MOVLW  33
33D4:  MOVWF  xCD
33D6:  MOVLB  0
33D8:  CALL   0CA4
33DC:  MOVLB  1
....................           break; 
33DE:  MOVLB  0
33E0:  BRA    33F2
....................  
....................         case 'V': // save parameters 
....................           allow_write = 2975; 
33E2:  MOVLW  0B
33E4:  MOVWF  xE4
33E6:  MOVLW  9F
33E8:  MOVWF  xE3
....................           write_setup(); 
33EA:  CALL   1528
....................           update_all(); 
33EE:  CALL   0C6A
....................           break; 
....................         } 
....................       break; 
33F2:  BRA    34F4
....................  
....................     case '1': // year    
....................       year = get_int(); 
33F4:  CALL   13DC
33F8:  MOVFF  02,130
33FC:  MOVFF  01,12F
....................        if(year > 0 && year < 100)  
3400:  MOVLB  1
3402:  MOVF   x2F,F
3404:  BNZ   340A
3406:  MOVF   x30,F
3408:  BZ    341E
340A:  MOVF   x30,F
340C:  BNZ   341E
340E:  MOVF   x2F,W
3410:  SUBLW  63
3412:  BNC   341E
....................          { 
....................       setup.year = year; 
3414:  MOVFF  130,DF
3418:  MOVFF  12F,DE
....................       } 
341C:  BRA    345C
....................    else 
....................       COM1_send_str("\r\n$FAIL\r\n"); 
341E:  MOVLW  01
3420:  MOVWF  FEA
3422:  MOVLW  33
3424:  MOVWF  FE9
3426:  MOVFF  FF2,13D
342A:  BCF    FF2.7
342C:  MOVLW  0A
342E:  MOVWF  01
3430:  CLRF   FF7
3432:  MOVLW  00
3434:  MOVLB  0
3436:  CALL   045C
343A:  TBLRD*-
343C:  TBLRD*+
343E:  MOVFF  FF5,FEE
3442:  DECFSZ 01,F
3444:  BRA    343C
3446:  MOVLB  1
3448:  BTFSC  x3D.7
344A:  BSF    FF2.7
344C:  MOVLW  01
344E:  MOVWF  xCE
3450:  MOVLW  33
3452:  MOVWF  xCD
3454:  MOVLB  0
3456:  CALL   0CA4
345A:  MOVLB  1
....................     break; 
345C:  MOVLB  0
345E:  BRA    34F4
....................  
....................     case '2': // week 
....................       week = get_int(); 
3460:  CALL   13DC
3464:  MOVFF  02,132
3468:  MOVFF  01,131
....................       if(week > 0 && week < 58)  
346C:  MOVLB  1
346E:  MOVF   x31,F
3470:  BNZ   3476
3472:  MOVF   x32,F
3474:  BZ    3486
3476:  MOVF   x32,F
3478:  BNZ   3486
347A:  MOVF   x31,W
347C:  SUBLW  39
347E:  BNC   3486
....................       { 
....................       setup.week = week; 
3480:  MOVFF  131,E0
....................       }   
3484:  BRA    34C4
....................    else 
....................       COM1_send_str("\r\n$FAIL\r\n"); 
3486:  MOVLW  01
3488:  MOVWF  FEA
348A:  MOVLW  33
348C:  MOVWF  FE9
348E:  MOVFF  FF2,13D
3492:  BCF    FF2.7
3494:  MOVLW  0A
3496:  MOVWF  01
3498:  CLRF   FF7
349A:  MOVLW  00
349C:  MOVLB  0
349E:  CALL   045C
34A2:  TBLRD*-
34A4:  TBLRD*+
34A6:  MOVFF  FF5,FEE
34AA:  DECFSZ 01,F
34AC:  BRA    34A4
34AE:  MOVLB  1
34B0:  BTFSC  x3D.7
34B2:  BSF    FF2.7
34B4:  MOVLW  01
34B6:  MOVWF  xCE
34B8:  MOVLW  33
34BA:  MOVWF  xCD
34BC:  MOVLB  0
34BE:  CALL   0CA4
34C2:  MOVLB  1
....................    break; 
34C4:  MOVLB  0
34C6:  BRA    34F4
....................     case '3': // unit ID 
....................       setup.unit_ID = get_int(); 
34C8:  CALL   13DC
34CC:  MOVFF  02,E2
34D0:  MOVFF  01,E1
....................       break; 
34D4:  BRA    34F4
....................     case 'Q': 
....................       send_status(); 
34D6:  GOTO   1F1A
....................       break; 
34DA:  BRA    34F4
.................... 	case 'R': 
....................       send_raw_status(); 
34DC:  GOTO   2568
....................       break; 
34E0:  BRA    34F4
....................  
....................     default: 
....................       printf("\r\n$FAIL\r\n"); 
34E2:  MOVLW  F0
34E4:  MOVWF  FF6
34E6:  MOVLW  06
34E8:  MOVWF  FF7
34EA:  GOTO   2B54
....................  
....................       return 0; 
34EE:  MOVLW  00
34F0:  MOVWF  01
34F2:  BRA    34F8
....................     } 
....................   return 0; 
34F4:  MOVLW  00
34F6:  MOVWF  01
34F8:  GOTO   35C6 (RETURN)
....................   } 
....................  
.................... //---------------------------------------------------------------------------- 
.................... void dollar_handler(void) 
....................   { 
....................   UINT chr, ret; 
....................  
....................   switch (comm_state) 
34FC:  MOVF   4E,W
34FE:  ADDLW  FC
3500:  BTFSC  FD8.0
3502:  BRA    3694
3504:  ADDLW  04
3506:  GOTO   3698
....................     { 
....................     case COMM_INIT: 
....................       comm_ridx = 0; 
350A:  CLRF   4F
....................       comm_state++; 
350C:  INCF   4E,F
....................       break; 
350E:  BRA    3694
....................     case COMM_WAIT_DLR: 
.................... #ignore_warnings 201 
....................     if (COM1_rcnt) 
3510:  MOVF   2B,F
3512:  BZ    3578
....................       { 
....................       chr = COM1_get_chr(); 
3514:  CALL   110A
3518:  MOVLB  1
351A:  CLRF   x06
351C:  MOVFF  01,105
....................       if (chr) 
3520:  MOVF   x05,W
3522:  IORWF  x06,W
3524:  BZ    357A
....................           if (chr == '$') 
3526:  MOVF   x05,W
3528:  SUBLW  24
352A:  BNZ   353C
352C:  MOVF   x06,F
352E:  BNZ   353C
....................              { 
....................              comm_state++; 
3530:  INCF   4E,F
....................              comm_timeout = 0; 
3532:  MOVLB  0
3534:  CLRF   xA1
3536:  CLRF   xA0
....................              }    
3538:  BRA    3578
353A:  MOVLB  1
....................            else 
....................               COM1_send_str("\r\n$FAULT\r\n"); 
353C:  MOVLW  01
353E:  MOVWF  FEA
3540:  MOVLW  09
3542:  MOVWF  FE9
3544:  MOVFF  FF2,126
3548:  BCF    FF2.7
354A:  MOVLW  0B
354C:  MOVWF  01
354E:  CLRF   FF7
3550:  MOVLW  00
3552:  MOVLB  0
3554:  CALL   04A2
3558:  TBLRD*-
355A:  TBLRD*+
355C:  MOVFF  FF5,FEE
3560:  DECFSZ 01,F
3562:  BRA    355A
3564:  MOVLB  1
3566:  BTFSC  x26.7
3568:  BSF    FF2.7
356A:  MOVLW  01
356C:  MOVWF  xCE
356E:  MOVLW  09
3570:  MOVWF  xCD
3572:  MOVLB  0
3574:  CALL   0CA4
3578:  MOVLB  1
....................       } 
....................       break; 
357A:  MOVLB  0
357C:  BRA    3694
....................     case COMM_WAIT_CR: 
....................       if (COM1_rcnt) 
357E:  MOVF   2B,F
3580:  BTFSC  FD8.2
3582:  BRA    3666
....................         { 
....................         comm_timeout = 0; 
3584:  CLRF   xA1
3586:  CLRF   xA0
....................         chr = COM1_get_chr(); 
3588:  CALL   110A
358C:  MOVLB  1
358E:  CLRF   x06
3590:  MOVFF  01,105
....................         comm_buf[comm_ridx++] = chr; 
3594:  MOVF   4F,W
3596:  INCF   4F,F
3598:  CLRF   03
359A:  ADDLW  50
359C:  MOVWF  FE9
359E:  MOVLW  00
35A0:  ADDWFC 03,W
35A2:  MOVWF  FEA
35A4:  MOVFF  105,FEF
....................         if (comm_ridx > 70) 
35A8:  MOVF   4F,W
35AA:  SUBLW  46
35AC:  BC    35B6
....................           { 
....................           comm_state = 0; 
35AE:  CLRF   4E
....................           break; 
35B0:  MOVLB  0
35B2:  BRA    3694
35B4:  MOVLB  1
....................           } 
....................         if (chr == 13) 
35B6:  MOVF   x05,W
35B8:  SUBLW  0D
35BA:  BNZ   361E
35BC:  MOVF   x06,F
35BE:  BNZ   361E
....................           { 
....................           ret = process_dollar_commands(); 
35C0:  MOVLB  0
35C2:  GOTO   2B76
35C6:  MOVLB  1
35C8:  CLRF   x08
35CA:  MOVFF  01,107
....................           if (ret != 255) 
35CE:  INCFSZ x07,W
35D0:  BRA    35D6
35D2:  MOVF   x08,F
35D4:  BZ    3614
....................             COM1_send_str("\r\n$OK\r\n"); 
35D6:  MOVLW  01
35D8:  MOVWF  FEA
35DA:  MOVLW  14
35DC:  MOVWF  FE9
35DE:  MOVFF  FF2,126
35E2:  BCF    FF2.7
35E4:  MOVLW  08
35E6:  MOVWF  01
35E8:  CLRF   FF7
35EA:  MOVLW  00
35EC:  MOVLB  0
35EE:  CALL   04C8
35F2:  TBLRD*-
35F4:  TBLRD*+
35F6:  MOVFF  FF5,FEE
35FA:  DECFSZ 01,F
35FC:  BRA    35F4
35FE:  MOVLB  1
3600:  BTFSC  x26.7
3602:  BSF    FF2.7
3604:  MOVLW  01
3606:  MOVWF  xCE
3608:  MOVLW  14
360A:  MOVWF  xCD
360C:  MOVLB  0
360E:  CALL   0CA4
3612:  MOVLB  1
....................           COM1_init(); 
3614:  MOVLB  0
3616:  CALL   0720
....................           } 
361A:  BRA    3666
361C:  MOVLB  1
....................         else if (chr == 27) 
361E:  MOVF   x05,W
3620:  SUBLW  1B
3622:  BNZ   3668
3624:  MOVF   x06,F
3626:  BNZ   3668
....................           { 
....................           COM1_send_str("\r\nBREAK\r\n"); 
3628:  MOVLW  01
362A:  MOVWF  FEA
362C:  MOVLW  1C
362E:  MOVWF  FE9
3630:  MOVFF  FF2,126
3634:  BCF    FF2.7
3636:  MOVLW  0A
3638:  MOVWF  01
363A:  CLRF   FF7
363C:  MOVLW  00
363E:  MOVLB  0
3640:  CALL   04EA
3644:  TBLRD*-
3646:  TBLRD*+
3648:  MOVFF  FF5,FEE
364C:  DECFSZ 01,F
364E:  BRA    3646
3650:  MOVLB  1
3652:  BTFSC  x26.7
3654:  BSF    FF2.7
3656:  MOVLW  01
3658:  MOVWF  xCE
365A:  MOVLW  1C
365C:  MOVWF  xCD
365E:  MOVLB  0
3660:  CALL   0CA4
....................           comm_state = 0; 
3664:  CLRF   4E
3666:  MOVLB  1
....................           } 
....................         } 
....................  
....................       if (comm_state > COMM_WAIT_DLR) 
3668:  MOVF   4E,W
366A:  SUBLW  01
366C:  BC    3690
....................         if (TMR_100MS_COMM_TO) 
366E:  BTFSS  1E.1
3670:  BRA    3690
....................           { 
....................           TMR_100MS_COMM_TO = 0; 
3672:  BCF    1E.1
....................           if (++comm_timeout > 10000) // time out after 10 seconds from last char 
3674:  MOVLB  0
3676:  INCF   xA0,F
3678:  BTFSC  FD8.2
367A:  INCF   xA1,F
367C:  MOVF   xA1,W
367E:  SUBLW  26
3680:  BC    368E
3682:  XORLW  FF
3684:  BNZ   368C
3686:  MOVF   xA0,W
3688:  SUBLW  10
368A:  BC    368E
....................             comm_state = 0; 
368C:  CLRF   4E
368E:  MOVLB  1
....................           } 
....................       break; 
3690:  MOVLB  0
3692:  BRA    3694
....................     case COMM_DELAY: 
....................       break; 
....................     } 
3694:  GOTO   36CA (RETURN)
....................   } 
....................  
....................  
.................... //---------------------------------------------------------------------------- 
.................... void clear_comm_errors(void) 
....................   { 
....................   UCHAR chr; 
....................   if (OERR) 
*
10E4:  BTFSS  FAB.1
10E6:  BRA    10FC
....................     { 
....................     OERR = 0; 
10E8:  BCF    FAB.1
....................     CREN = 0; 
10EA:  BCF    FAB.4
....................     delay_us(5); 
10EC:  CLRWDT
10EE:  MOVLW  05
10F0:  MOVWF  00
10F2:  DECFSZ 00,F
10F4:  BRA    10F2
10F6:  BRA    10F8
10F8:  NOP   
....................     CREN = 1; 
10FA:  BSF    FAB.4
....................     } 
....................   if (FERR) 
10FC:  BTFSS  FAB.2
10FE:  BRA    1106
....................     { 
....................     FERR = 0; 
1100:  BCF    FAB.2
....................     chr = RCREG1; 
1102:  MOVFF  FAE,105
....................     } 
1106:  GOTO   36C8 (RETURN)
....................   } 
....................  
.................... //---------------------------------------------------------------------------- 
.................... #separate 
.................... void comm_handler(void) 
....................   { 
....................   clear_comm_errors(); 
*
36C4:  GOTO   10E4
....................   dollar_handler(); 
36C8:  BRA    34FC
36CA:  GOTO   37FE (RETURN)
....................   } 
....................  
....................  
....................  
....................  
.................... //========== functions ======================================================== 
....................  
.................... //============================================================================= 
.................... void init_io_ports(void) 
....................   { 
....................   output_a(0); 
*
06FA:  CLRF   F89
....................   output_b(0); 
06FC:  CLRF   F8A
....................   output_c(0); 
06FE:  CLRF   F8B
....................   output_d(0); 
0700:  CLRF   F8C
....................   output_e(0); 
0702:  CLRF   F8D
....................   set_tris_a(0b11100001); 
0704:  MOVLW  E1
0706:  MOVWF  F92
....................   set_tris_b(0b11001001); 
0708:  MOVLW  C9
070A:  MOVWF  F93
....................   set_tris_c(0b10000000); 
070C:  MOVLW  80
070E:  MOVWF  F94
....................   set_tris_d(0b10100010); 
0710:  MOVLW  A2
0712:  MOVWF  F95
....................   set_tris_e(0b11111111); 
0714:  BSF    F96.0
0716:  BSF    F96.1
0718:  BSF    F96.2
071A:  BSF    F96.3
071C:  GOTO   075A (RETURN)
....................   } 
....................  
.................... //============================================================================= 
.................... void write_int_eeprom(UINT addr, UCHAR *data, UINT size) 
....................   { 
....................   while (size--) 
*
14B8:  MOVLB  1
14BA:  MOVFF  142,03
14BE:  MOVF   x41,W
14C0:  BTFSC  FD8.2
14C2:  DECF   x42,F
14C4:  DECF   x41,F
14C6:  IORWF  03,W
14C8:  BZ    1522
....................     write_eeprom(addr++, *data++); 
14CA:  MOVF   x3E,W
14CC:  MOVWF  03
14CE:  MOVF   x3D,W
14D0:  INCF   x3D,F
14D2:  BTFSC  FD8.2
14D4:  INCF   x3E,F
14D6:  MOVWF  x43
14D8:  MOVFF  03,144
14DC:  MOVF   x40,W
14DE:  MOVWF  03
14E0:  MOVF   x3F,W
14E2:  INCF   x3F,F
14E4:  BTFSC  FD8.2
14E6:  INCF   x40,F
14E8:  MOVWF  FE9
14EA:  MOVFF  03,FEA
14EE:  MOVFF  FEF,145
14F2:  MOVF   FF2,W
14F4:  MOVWF  00
14F6:  BCF    FF2.7
14F8:  MOVFF  143,FA9
14FC:  MOVFF  145,FA8
1500:  BCF    FA6.6
1502:  BCF    FA6.7
1504:  BSF    FA6.2
1506:  MOVLB  F
1508:  MOVLW  55
150A:  MOVWF  FA7
150C:  MOVLW  AA
150E:  MOVWF  FA7
1510:  BSF    FA6.1
1512:  BTFSC  FA6.1
1514:  BRA    1512
1516:  BCF    FA6.2
1518:  MOVF   00,W
151A:  IORWF  FF2,F
151C:  MOVLB  0
151E:  BRA    14B8
1520:  MOVLB  1
1522:  MOVLB  0
1524:  GOTO   154A (RETURN)
....................   } 
....................  
.................... //============================================================================= 
.................... void read_int_eeprom(UINT addr, UCHAR *data, UINT size) 
....................   { 
....................   while (size--) 
*
0798:  MOVLB  1
079A:  MOVFF  10A,03
079E:  MOVF   x09,W
07A0:  BTFSC  FD8.2
07A2:  DECF   x0A,F
07A4:  DECF   x09,F
07A6:  IORWF  03,W
07A8:  BZ    07E8
....................     *data++ = read_eeprom(addr++); 
07AA:  MOVF   x08,W
07AC:  MOVWF  03
07AE:  MOVF   x07,W
07B0:  INCF   x07,F
07B2:  BTFSC  FD8.2
07B4:  INCF   x08,F
07B6:  MOVWF  FE9
07B8:  MOVFF  03,FEA
07BC:  MOVF   x06,W
07BE:  MOVWF  03
07C0:  MOVF   x05,W
07C2:  INCF   x05,F
07C4:  BTFSC  FD8.2
07C6:  INCF   x06,F
07C8:  MOVWF  x0D
07CA:  MOVFF  03,10E
07CE:  MOVFF  FF2,10F
07D2:  BCF    FF2.7
07D4:  MOVFF  10D,FA9
07D8:  BCF    FA6.6
07DA:  BCF    FA6.7
07DC:  BSF    FA6.0
07DE:  MOVF   FA8,W
07E0:  BTFSC  x0F.7
07E2:  BSF    FF2.7
07E4:  MOVWF  FEF
07E6:  BRA    079A
07E8:  MOVLB  0
07EA:  GOTO   0820 (RETURN)
....................   } 
....................  
.................... //============================================================================= 
.................... void write_setup(void) 
....................   { 
....................   if (allow_write == 2975) 
*
1528:  MOVF   xE3,W
152A:  SUBLW  9F
152C:  BNZ   154A
152E:  MOVF   xE4,W
1530:  SUBLW  0B
1532:  BNZ   154A
....................     write_int_eeprom(0, &setup, sizeof(setup)); 
1534:  MOVLB  1
1536:  CLRF   x3E
1538:  CLRF   x3D
153A:  CLRF   x40
153C:  MOVLW  A2
153E:  MOVWF  x3F
1540:  CLRF   x42
1542:  MOVLW  41
1544:  MOVWF  x41
1546:  MOVLB  0
1548:  BRA    14B8
....................   allow_write = 0; 
154A:  CLRF   xE4
154C:  CLRF   xE3
154E:  RETURN 0
....................   } 
....................  
.................... //============================================================================= 
.................... void read_setup(void) 
....................   { 
....................   read_int_eeprom(0, &setup, sizeof(setup)); 
*
080A:  MOVLB  1
080C:  CLRF   x06
080E:  CLRF   x05
0810:  CLRF   x08
0812:  MOVLW  A2
0814:  MOVWF  x07
0816:  CLRF   x0A
0818:  MOVLW  41
081A:  MOVWF  x09
081C:  MOVLB  0
081E:  BRA    0798
....................   if (setup.frequency == 0xFFFF || setup.power_level == 0xFF) 
0820:  INCFSZ xA3,W
0822:  BRA    082A
0824:  INCFSZ xA4,W
0826:  BRA    082A
0828:  BRA    0832
082A:  INCFSZ xA5,W
082C:  BRA    0842
082E:  MOVF   xA6,F
0830:  BNZ   0842
....................     memset(&setup, 0, sizeof(setup)); 
0832:  CLRF   FEA
0834:  MOVLW  A2
0836:  MOVWF  FE9
0838:  CLRF   00
083A:  CLRF   02
083C:  MOVLW  41
083E:  MOVWF  01
0840:  BRA    07EE
0842:  GOTO   3738 (RETURN)
....................   } 
....................  
.................... //----------------------------------------------------------------------------- 
.................... #separate 
.................... void power_output(void)				//not all defined yet in this function 
....................   { 
....................   UINT power, v28_sense; 
.................... 	if(pa_command) 
*
0FAA:  MOVF   xEE,F
0FAC:  BZ    0FF4
.................... 	{ 
.................... 		set_adc_channel(A2D_28v); 			// select 28v power input 
0FAE:  MOVLW  24
0FB0:  MOVWF  01
0FB2:  MOVF   FC2,W
0FB4:  ANDLW  83
0FB6:  IORWF  01,W
0FB8:  MOVWF  FC2
....................   		delay_us(20); 
0FBA:  CLRWDT
0FBC:  MOVLW  19
0FBE:  MOVWF  00
0FC0:  DECFSZ 00,F
0FC2:  BRA    0FC0
0FC4:  BRA    0FC6
0FC6:  NOP   
....................   		v28_sense = read_adc();					 
0FC8:  BSF    FC2.1
0FCA:  BTFSC  FC2.1
0FCC:  BRA    0FCA
0FCE:  MOVFF  FC4,108
0FD2:  MOVLB  1
0FD4:  MOVFF  FC3,107
.................... 		if(v28_sense > 200)				//before enable check 28v if above 20v, 20v = 565 A2d read value 
0FD8:  MOVF   x08,F
0FDA:  BNZ   0FE2
0FDC:  MOVF   x07,W
0FDE:  SUBLW  C8
0FE0:  BC    0FEA
.................... 		{ 
.................... 		output_high(PREAMP_EN); 
0FE2:  BSF    F8C.2
.................... 		output_high(PREAMP2_EN); 
0FE4:  BSF    F8B.5
.................... 		output_high(TX_RX_INIT); 
0FE6:  BSF    F8C.3
.................... 		} 
0FE8:  BRA    0FF0
.................... 		else 
.................... 		{ 
.................... 		output_low(PREAMP_EN); 
0FEA:  BCF    F8C.2
.................... 		output_low(PREAMP2_EN); 
0FEC:  BCF    F8B.5
.................... 		output_low(TX_RX_INIT); 
0FEE:  BCF    F8C.3
.................... 		} 
.................... 	} 
0FF0:  BRA    0FFC
0FF2:  MOVLB  0
.................... 	else 
.................... 	{ 
.................... 		output_low(PREAMP_EN); 
0FF4:  BCF    F8C.2
.................... 		output_low(PREAMP2_EN); 
0FF6:  BCF    F8B.5
.................... 		output_low(TX_RX_INIT); 
0FF8:  BCF    F8C.3
0FFA:  MOVLB  1
.................... 	} 
....................  
....................  
....................  
.................... //    set_adc_channel(A2D_VGMON); // select forward power input 
.................... //    delay_us(20); 
.................... //    power = read_adc(); 
.................... //    if (power > VGMON_THRESHOLD) 
.................... //      output_low(PA_ON); 
.................... //    else if (pa_command) 
.................... //      output_high(PA_ON); 
.................... //    else 
.................... //      output_low(PA_ON); 
.................... //    } 
.................... //  else 
.................... //    { 
.................... //    output_low(POWER_EN); 
.................... //    output_low(PA_ON); 
.................... //    } 
....................  
....................  
....................  
....................   if (setup.power_level) 
0FFC:  MOVLB  0
0FFE:  MOVF   xA5,W
1000:  IORWF  xA6,W
1002:  BZ    102A
....................     { 
....................     set_AD5314(DAC_NEG_VOLT, setup.negative_voltage[1]); 
1004:  MOVLW  02
1006:  MOVLB  1
1008:  MOVWF  x09
100A:  MOVFF  AA,10B
100E:  MOVFF  A9,10A
1012:  MOVLB  0
1014:  RCALL  0D5A
.................... 	set_AD5314(DAC_PRE_AMP_POS, setup.power_in[1]); 
1016:  MOVLW  06
1018:  MOVLB  1
101A:  MOVWF  x09
101C:  MOVFF  AE,10B
1020:  MOVFF  AD,10A
1024:  MOVLB  0
1026:  RCALL  0D5A
.................... //	set_AD5314(DAC_MONITOR_CTRL , setup.monitor_ctrl[1]); 
....................     } 
1028:  BRA    104E
....................   else 
....................     { 
....................     set_AD5314(DAC_NEG_VOLT, setup.negative_voltage[0]); 
102A:  MOVLW  02
102C:  MOVLB  1
102E:  MOVWF  x09
1030:  MOVFF  A8,10B
1034:  MOVFF  A7,10A
1038:  MOVLB  0
103A:  RCALL  0D5A
.................... 	set_AD5314(DAC_PRE_AMP_POS, setup.power_in[0]); 
103C:  MOVLW  06
103E:  MOVLB  1
1040:  MOVWF  x09
1042:  MOVFF  AC,10B
1046:  MOVFF  AB,10A
104A:  MOVLB  0
104C:  RCALL  0D5A
.................... //	set_AD5314(DAC_MONITOR_CTRL , setup.monitor_ctrl[0]); 
....................     } 
....................  
....................  
....................  
....................   if (TMR_100MS_POWER) 
104E:  BTFSS  1E.3
1050:  BRA    10DE
....................     { 
....................     TMR_100MS_POWER = 0; 
1052:  BCF    1E.3
....................     set_adc_channel(A2D_POWER); // select forward power input 
1054:  MOVLW  14
1056:  MOVWF  01
1058:  MOVF   FC2,W
105A:  ANDLW  83
105C:  IORWF  01,W
105E:  MOVWF  FC2
....................     delay_us(20); 
1060:  CLRWDT
1062:  MOVLW  19
1064:  MOVWF  00
1066:  DECFSZ 00,F
1068:  BRA    1066
106A:  BRA    106C
106C:  NOP   
....................     power = read_adc(); 
106E:  BSF    FC2.1
1070:  BTFSC  FC2.1
1072:  BRA    1070
1074:  MOVFF  FC4,106
1078:  MOVLB  1
107A:  MOVFF  FC3,105
....................     power_avg[pavgx] = power; 
107E:  BCF    FD8.0
1080:  RLCF   29,W
1082:  MOVWF  02
1084:  RLCF   2A,W
1086:  MOVWF  03
1088:  MOVF   02,W
108A:  ADDLW  21
108C:  MOVWF  FE9
108E:  MOVLW  00
1090:  ADDWFC 03,W
1092:  MOVWF  FEA
1094:  MOVFF  106,FEC
1098:  MOVF   FED,F
109A:  MOVFF  105,FEF
....................     if (++pavgx > 3) 
109E:  INCF   29,F
10A0:  BTFSC  FD8.2
10A2:  INCF   2A,F
10A4:  MOVF   2A,F
10A6:  BNZ   10AE
10A8:  MOVF   29,W
10AA:  SUBLW  03
10AC:  BC    10B2
....................       pavgx = 0; 
10AE:  CLRF   2A
10B0:  CLRF   29
....................     power = (power_avg[0] + power_avg[1] + power_avg[2] + power_avg[3]) / 4; 
10B2:  MOVF   23,W
10B4:  ADDWF  21,W
10B6:  MOVWF  x09
10B8:  MOVF   24,W
10BA:  ADDWFC 22,W
10BC:  MOVWF  x0A
10BE:  MOVF   25,W
10C0:  ADDWF  x09,F
10C2:  MOVF   26,W
10C4:  ADDWFC x0A,F
10C6:  MOVF   27,W
10C8:  ADDWF  x09,F
10CA:  MOVF   28,W
10CC:  ADDWFC x0A,F
10CE:  RRCF   x0A,W
10D0:  MOVWF  x06
10D2:  RRCF   x09,W
10D4:  MOVWF  x05
10D6:  RRCF   x06,F
10D8:  RRCF   x05,F
10DA:  MOVLW  3F
10DC:  ANDWF  x06,F
10DE:  MOVLB  0
....................  
.................... /* 
....................     if (power < setup.fwd_table[5][0]) 
....................       set_AD5314(DAC_POS_VOLT, METER_OUTPUT1); 
....................  //   else if (power < setup.fwd_table[2][0]) 
....................  //     set_AD5314(DAC_POS_VOLT, METER_OUTPUT2); 
....................  //   else if (power < setup.fwd_table[7][0]) 
....................   //    set_AD5314(DAC_POS_VOLT, METER_OUTPUT3); 
....................     else 
....................       set_AD5314(DAC_POS_VOLT, METER_OUTPUT4); 
....................  
.................... */ 
....................     } 
10E0:  GOTO   37FC (RETURN)
....................   } 
....................  
....................  
.................... //============================================================================= 
.................... #separate 
.................... void delay_mst(UINT delay) 
....................   { 
....................   TMR_1MS_DELAY = 0; 
....................   while (delay) 
....................     { 
....................     if (TMR_1MS_DELAY) 
....................       { 
....................       TMR_1MS_DELAY = 0; 
....................       delay--; 
....................       } 
....................     } 
....................   } 
....................  
.................... //============================================================================= 
.................... void init_system(void) 
....................   { 
....................  
....................   setup_timer_2(T2_DIV_BY_4,99,10);    // 1.0 ms interrupt 
*
0730:  MOVLW  48
0732:  IORLW  05
0734:  MOVWF  FBA
0736:  MOVLW  63
0738:  MOVWF  FBB
....................   setup_timer_3(T3_DISABLED | T3_DIV_BY_1); 
073A:  CLRF   FB4
073C:  CLRF   FB1
....................   setup_timer_4(T4_DIV_BY_4,99,1);     // 100 us interrupt 
073E:  MOVLW  00
0740:  IORLW  05
0742:  MOVLB  F
0744:  MOVWF  x51
0746:  MOVLW  63
0748:  MOVWF  x52
....................   setup_timer_5(T5_DISABLED | T5_DIV_BY_1); 
074A:  CLRF   x4D
074C:  CLRF   x4E
....................   setup_timer_6(T6_DISABLED,0,1); 
074E:  MOVLW  00
0750:  MOVWF  x4A
0752:  MOVLW  00
0754:  MOVWF  x4B
....................   //setup_timer_6(T6_DIV_BY_4,99,10000);  //1.0 sec interrupt 
....................  
....................   init_io_ports(); 
0756:  MOVLB  0
0758:  BRA    06FA
.................... //  setup_ccp5(CCP_OFF);								//  0       4       5       6      9      25 
.................... 													    //MCU_3P3 RREV    FFWR2   FFWR1  SENS_28V TMP 
....................   setup_adc_ports(sAN0|sAN4|sAN5|sAN6|sAN9|sAN25);   	//PIN_A0, PIN_A5, PIN_E0, PIN_E1,PIN_B3,PIN_D5 
075A:  MOVF   FC1,W
075C:  ANDLW  F0
075E:  MOVWF  FC1
0760:  MOVLW  21
0762:  MOVLB  F
0764:  MOVWF  x38
0766:  MOVLW  03
0768:  MOVWF  x3C
076A:  MOVLW  08
076C:  MOVWF  x39
076E:  MOVLW  00
0770:  MOVWF  x3A
0772:  MOVLW  20
0774:  MOVWF  x3B
....................   setup_adc(ADC_CLOCK_DIV_16|ADC_TAD_MUL_8); 
0776:  MOVF   FC0,W
0778:  ANDLW  C0
077A:  IORLW  25
077C:  MOVWF  FC0
077E:  BSF    FC0.7
0780:  BSF    FC2.0
....................  
....................   setup_comparator(NC_NC_NC_NC); 
0782:  CLRF   F77
0784:  MOVLW  04
0786:  MOVWF  F78
0788:  MOVWF  F79
....................  
....................   COM1_init(); 
078A:  MOVLB  0
078C:  RCALL  0720
....................   enable_interrupts(INT_TIMER2); 
078E:  BSF    F9D.1
....................   enable_interrupts(GLOBAL); 
0790:  MOVLW  C0
0792:  IORWF  FF2,F
0794:  GOTO   3734 (RETURN)
....................   } 
....................  
.................... //============================================================================= 
.................... void update_all(void) 
....................   { 
....................   UINT freq; 
....................   freq = setup.frequency; 
*
0C6A:  MOVFF  A4,140
0C6E:  MOVFF  A3,13F
....................   PLL1_compute_freq_parameters(freq * 10); 
0C72:  MOVFF  140,142
0C76:  MOVFF  13F,141
0C7A:  MOVLB  1
0C7C:  CLRF   x44
0C7E:  MOVLW  0A
0C80:  MOVWF  x43
0C82:  MOVLB  0
0C84:  RCALL  0A1E
0C86:  MOVFF  02,142
0C8A:  MOVFF  01,141
0C8E:  MOVFF  02,144
0C92:  MOVFF  01,143
0C96:  RCALL  0B2E
....................   PLL1_update(); 
0C98:  RCALL  0944
....................   power_control = 1000; 
0C9A:  MOVLW  03
0C9C:  MOVWF  17
0C9E:  MOVLW  E8
0CA0:  MOVWF  16
0CA2:  RETURN 0
....................  
.................... //  set_AD5314(DAC_NEG_VOLT, setup.dac_val[0]); 
.................... //  set_AD5314(DAC_PRE_AMP_POS, setup.dac_val[1]); 
.................... //  set_AD5314(DAC_UP_GAI_COUNT, setup.dac_val[2]); 
.................... //  set_AD5314(DAC_OCXO_REF, setup.dac_val[3]); 
....................   } 
....................  
.................... void check_bit_mode(void) 
....................   { 
.................... 	if(TMR_1Sec_BIT_EN) 
*
0D38:  BTFSS  20.3
0D3A:  BRA    0D56
.................... 		{ 
.................... 			TMR_1Sec_BIT_EN = 0; 
0D3C:  BCF    20.3
.................... 			count_1sec++; 
0D3E:  INCF   xF1,F
0D40:  BTFSC  FD8.2
0D42:  INCF   xF2,F
.................... 			if(count_1sec >= 60) 
0D44:  MOVF   xF2,F
0D46:  BNZ   0D4E
0D48:  MOVF   xF1,W
0D4A:  SUBLW  3B
0D4C:  BC    0D56
.................... 			{	 
.................... 				count_1sec = 0; 
0D4E:  CLRF   xF2
0D50:  CLRF   xF1
.................... 				output_low(BIT_MODE_EN); 
0D52:  BCF    F8B.4
....................   				bit_mode = 0; 
0D54:  CLRF   xF0
.................... 			} 
.................... 		} 
0D56:  GOTO   37F8 (RETURN)
....................   } 
.................... //============================================================================= 
.................... void main(void) 
*
36CE:  CLRF   FF8
36D0:  BCF    FD0.7
36D2:  BSF    07.7
36D4:  MOVLW  70
36D6:  MOVWF  FD3
36D8:  BCF    F9B.6
36DA:  BCF    F9B.7
36DC:  BCF    FB8.3
36DE:  MOVLW  19
36E0:  MOVWF  FAF
36E2:  MOVLW  A6
36E4:  MOVWF  FAC
36E6:  MOVLW  90
36E8:  MOVWF  FAB
36EA:  BCF    F95.7
36EC:  BSF    F8C.7
36EE:  CLRF   2A
36F0:  CLRF   29
36F2:  CLRF   xE4
36F4:  CLRF   xE3
36F6:  MOVFF  A2,EE
36FA:  MOVLW  01
36FC:  MOVWF  xEF
36FE:  CLRF   xF0
3700:  CLRF   xF2
3702:  CLRF   xF1
3704:  CLRF   xF4
3706:  CLRF   xF3
3708:  MOVF   FC1,W
370A:  ANDLW  F0
370C:  MOVWF  FC1
370E:  MOVLW  00
3710:  MOVLB  F
3712:  MOVWF  x38
3714:  MOVWF  x3C
3716:  MOVWF  x39
3718:  MOVWF  x3A
371A:  MOVWF  x3B
371C:  MOVLB  1
371E:  CLRF   x88
3720:  CLRF   F77
3722:  CLRF   F78
3724:  CLRF   F79
3726:  MOVLW  03
3728:  MOVLB  0
372A:  MOVWF  xF6
372C:  MOVLW  E8
372E:  MOVWF  xF5
....................   { 
....................   int16 vouta = 1000; 
....................   init_system(); 
3730:  GOTO   0730
....................  
....................   read_setup(); 
3734:  GOTO   080A
....................  
....................   output_low(LED1); 
3738:  BCF    F8B.0
....................   output_low(LED2); 
373A:  BCF    F8A.4
....................   //////////////////////////power_level = setup.power_in[setup.power_level]; 
....................   power_control = 1000; 
373C:  MOVLW  03
373E:  MOVWF  17
3740:  MOVLW  E8
3742:  MOVWF  16
....................  
....................   PLL1_initialize(); 
3744:  GOTO   09B4
....................   update_all(); 
3748:  CALL   0C6A
....................  
....................   COM1_send_str("\r\n"); 
374C:  MOVLW  0D
374E:  MOVWF  xF7
3750:  MOVLW  0A
3752:  MOVWF  xF8
3754:  CLRF   xF9
3756:  MOVLB  1
3758:  CLRF   xCE
375A:  MOVLW  F7
375C:  MOVWF  xCD
375E:  MOVLB  0
3760:  CALL   0CA4
....................   COM1_send_str(VERSION); 
3764:  CLRF   FEA
3766:  MOVLW  F7
3768:  MOVWF  FE9
376A:  MOVFF  FF2,105
376E:  BCF    FF2.7
3770:  MOVLW  0E
3772:  MOVWF  01
3774:  CLRF   FF7
3776:  MOVLW  00
3778:  CALL   050E
377C:  TBLRD*-
377E:  TBLRD*+
3780:  MOVFF  FF5,FEE
3784:  DECFSZ 01,F
3786:  BRA    377E
3788:  MOVLB  1
378A:  BTFSC  x05.7
378C:  BSF    FF2.7
378E:  CLRF   xCE
3790:  MOVLW  F7
3792:  MOVWF  xCD
3794:  MOVLB  0
3796:  CALL   0CA4
....................   COM1_send_str("\r\n"); 
379A:  MOVLW  0D
379C:  MOVWF  xF7
379E:  MOVLW  0A
37A0:  MOVWF  xF8
37A2:  CLRF   xF9
37A4:  MOVLB  1
37A6:  CLRF   xCE
37A8:  MOVLW  F7
37AA:  MOVWF  xCD
37AC:  MOVLB  0
37AE:  CALL   0CA4
....................  
....................  //////////////////////// set_AD5314(DAC_POS_VOLT, vouta); 
....................   output_high(PLL1_CE);			//keep PLL CE constant HIGH 
37B2:  BSF    F8B.1
....................   delay_ms(2000); 
37B4:  MOVLW  08
37B6:  MOVLB  1
37B8:  MOVWF  x05
37BA:  MOVLW  FA
37BC:  MOVWF  x09
37BE:  MOVLB  0
37C0:  CALL   0846
37C4:  MOVLB  1
37C6:  DECFSZ x05,F
37C8:  BRA    37BA
....................   output_low(BIT_MODE_EN);		//init BIT MODE EN to off 
37CA:  BCF    F8B.4
....................  
....................   output_low(PREAMP_EN);		//$PS 0 
37CC:  BCF    F8C.2
....................   output_low(PREAMP2_EN);		//$PS 0 
37CE:  BCF    F8B.5
....................   output_low(TX_RX_INIT);		//$PS 0 
37D0:  BCF    F8C.3
....................   
.................... #ignore_warnings 203 
....................   while (1) 
....................     { 
....................     if (TMR_100mS_BLINK) 
37D2:  BTFSS  1E.0
37D4:  BRA    37EE
....................       { 
....................       TMR_100mS_BLINK = 0; 
37D6:  BCF    1E.0
....................       if (setup.power_level) 
37D8:  MOVLB  0
37DA:  MOVF   xA5,W
37DC:  IORWF  xA6,W
37DE:  BZ    37E4
....................         output_low(LED1); 
37E0:  BCF    F8B.0
37E2:  BRA    37E6
....................       else 
....................         output_toggle(LED1); 
37E4:  BTG    F8B.0
....................       delay_us(1); 
37E6:  CLRWDT
37E8:  BRA    37EA
37EA:  NOP   
37EC:  MOVLB  1
....................       } 
.................... 	   
.................... 	if(bit_mode == 1) 
37EE:  MOVLB  0
37F0:  DECFSZ xF0,W
37F2:  BRA    37F8
.................... 	  check_bit_mode(); 
37F4:  GOTO   0D38
....................  
....................     power_output(); 
37F8:  GOTO   0FAA
....................     comm_handler(); 
37FC:  BRA    36C4
37FE:  MOVLB  1
3800:  BRA    37D2
....................     } 
....................  
....................   vouta = 1; 
3802:  MOVLB  0
3804:  CLRF   xF6
3806:  MOVLW  01
3808:  MOVWF  xF5
....................   } 
....................  
380A:  BRA    380A
....................  
....................  

Configuration Fuses:
   Word  1: F800   INTRC_IO PLLEN PRIMARY_ON FCMEN IESO
   Word  2: 1C19   NOPUT NOBROWNOUT BORV19 NOWDT WDT128
   Word  3: BF00   CCP2C1 PBADEN CCP3B5 HFOFST TIMER3C0 CCP2D2 MCLR
   Word  4: 0000   NOSTVREN NOLVP NOXINST DEBUG
   Word  5: C00F   NOPROTECT NOCPB NOCPD
   Word  6: E00F   NOWRT NOWRTC NOWRTB NOWRTD
   Word  7: 400F   NOEBTR NOEBTRB

   Some fuses have been forced to be compatible with the ICD debugger.
