CCS PCH C Compiler, Version 5.008, 5967               06-Jun-18 17:15

               Filename:   C:\BA\Software_projects\PIC\1533\BA_1533\BA1533TXv1_0\BA1533TX.lst

               ROM used:   13088 bytes (40%)
                           Largest free fragment is 19676
               RAM used:   380 (25%) at main() level
                           649 (42%) worst case
               Stack used: 9 locations (8 in main + 1 for interrupts)
               Stack size: 30

*
0000:  GOTO   3196
*
0008:  MOVWF  04
000A:  MOVFF  FD8,05
000E:  MOVFF  FE0,06
0012:  MOVLB  0
0014:  MOVFF  FE9,0C
0018:  MOVFF  FEA,07
001C:  MOVFF  FE1,08
0020:  MOVFF  FE2,09
0024:  MOVFF  FD9,0A
0028:  MOVFF  FDA,0B
002C:  MOVFF  FF3,12
0030:  MOVFF  FF4,13
0034:  MOVFF  FFA,14
0038:  MOVFF  00,0E
003C:  MOVFF  01,0F
0040:  MOVFF  02,10
0044:  MOVFF  03,11
0048:  BTFSS  F9D.1
004A:  GOTO   0054
004E:  BTFSC  F9E.1
0050:  GOTO   0546
0054:  BTFSS  FF2.4
0056:  GOTO   0060
005A:  BTFSC  FF2.1
005C:  GOTO   0576
0060:  BTFSS  FF0.3
0062:  GOTO   006C
0066:  BTFSC  FF0.0
0068:  GOTO   057C
006C:  BTFSS  F9D.5
006E:  GOTO   0078
0072:  BTFSC  F9E.5
0074:  GOTO   0582
0078:  BTFSS  FA3.5
007A:  GOTO   0084
007E:  BTFSC  FA4.5
0080:  GOTO   05B0
0084:  BTFSS  F7D.0
0086:  GOTO   0090
008A:  BTFSC  F7E.0
008C:  GOTO   0540
0090:  MOVFF  0E,00
0094:  MOVFF  0F,01
0098:  MOVFF  10,02
009C:  MOVFF  11,03
00A0:  MOVFF  0C,FE9
00A4:  MOVFF  07,FEA
00A8:  BSF    07.7
00AA:  MOVFF  08,FE1
00AE:  MOVFF  09,FE2
00B2:  MOVFF  0A,FD9
00B6:  MOVFF  0B,FDA
00BA:  MOVFF  12,FF3
00BE:  MOVFF  13,FF4
00C2:  MOVFF  14,FFA
00C6:  MOVF   04,W
00C8:  MOVFF  06,FE0
00CC:  MOVFF  05,FD8
00D0:  RETFIE 0
....................  
.................... #include <BA1533TX.h> 
.................... #include <18F45K22.h> 
.................... //////// Standard Header file for the PIC18F45K22 device //////////////// 
.................... #device PIC18F45K22 
00D2:  MOVFF  FF2,0D
00D6:  BCF    FF2.7
00D8:  CLRF   FF7
00DA:  ADDLW  EC
00DC:  MOVWF  FF6
00DE:  MOVLW  00
00E0:  ADDWFC FF7,F
00E2:  TBLRD*+
00E4:  MOVF   FF5,W
00E6:  BTFSC  0D.7
00E8:  BSF    FF2.7
00EA:  RETURN 0
00EC:  DATA 24,46
00EE:  DATA 20,3C
00F0:  DATA 66,72
00F2:  DATA 65,71
00F4:  DATA 75,65
00F6:  DATA 6E,63
00F8:  DATA 79,3E
00FA:  DATA 3C,63
00FC:  DATA 72,3E
00FE:  DATA 20,20
0100:  DATA 09,53
0102:  DATA 65,74
0104:  DATA 20,66
0106:  DATA 72,65
0108:  DATA 71,75
010A:  DATA 65,6E
010C:  DATA 63,79
010E:  DATA 20,69
0110:  DATA 6E,20
0112:  DATA 31,4D
0114:  DATA 48,7A
0116:  DATA 20,69
0118:  DATA 6E,63
011A:  DATA 72,65
011C:  DATA 6D,65
011E:  DATA 6E,74
0120:  DATA 73,20
0122:  DATA 28,69
0124:  DATA 2E,65
0126:  DATA 2E,32
0128:  DATA 32,35
012A:  DATA 30,20
012C:  DATA 69,73
012E:  DATA 20,32
0130:  DATA 2E,32
0132:  DATA 35,30
0134:  DATA 47,48
0136:  DATA 7A,29
0138:  DATA 0D,0A
013A:  DATA 00,00
013C:  MOVFF  FF2,0D
0140:  BCF    FF2.7
0142:  CLRF   FF7
0144:  ADDLW  56
0146:  MOVWF  FF6
0148:  MOVLW  01
014A:  ADDWFC FF7,F
014C:  TBLRD*+
014E:  MOVF   FF5,W
0150:  BTFSC  0D.7
0152:  BSF    FF2.7
0154:  RETURN 0
0156:  DATA 24,4F
0158:  DATA 4E,20
015A:  DATA 3C,6F
015C:  DATA 6E,6F
015E:  DATA 66,66
0160:  DATA 3E,3C
0162:  DATA 63,72
0164:  DATA 3E,20
0166:  DATA 20,09
0168:  DATA 53,65
016A:  DATA 74,20
016C:  DATA 66,75
016E:  DATA 6C,6C
0170:  DATA 20,6F
0172:  DATA 70,65
0174:  DATA 72,61
0176:  DATA 74,69
0178:  DATA 6F,6E
017A:  DATA 20,6F
017C:  DATA 6E,28
017E:  DATA 31,29
0180:  DATA 20,6F
0182:  DATA 72,20
0184:  DATA 6F,66
0186:  DATA 66,28
0188:  DATA 30,29
018A:  DATA 0D,0A
018C:  DATA 00,00
018E:  MOVFF  FF2,0D
0192:  BCF    FF2.7
0194:  CLRF   FF7
0196:  ADDLW  A8
0198:  MOVWF  FF6
019A:  MOVLW  01
019C:  ADDWFC FF7,F
019E:  TBLRD*+
01A0:  MOVF   FF5,W
01A2:  BTFSC  0D.7
01A4:  BSF    FF2.7
01A6:  RETURN 0
01A8:  DATA 24,50
01AA:  DATA 53,20
01AC:  DATA 3C,70
01AE:  DATA 6F,77
01B0:  DATA 65,72
01B2:  DATA 3E,3C
01B4:  DATA 63,72
01B6:  DATA 3E,20
01B8:  DATA 20,09
01BA:  DATA 53,65
01BC:  DATA 74,20
01BE:  DATA 61,6D
01C0:  DATA 70,20
01C2:  DATA 70,6F
01C4:  DATA 77,65
01C6:  DATA 72,20
01C8:  DATA 6F,6E
01CA:  DATA 28,31
01CC:  DATA 29,20
01CE:  DATA 6F,72
01D0:  DATA 20,6F
01D2:  DATA 66,66
01D4:  DATA 28,30
01D6:  DATA 29,0D
01D8:  DATA 0A,00
01DA:  MOVFF  FF2,0D
01DE:  BCF    FF2.7
01E0:  CLRF   FF7
01E2:  ADDLW  F4
01E4:  MOVWF  FF6
01E6:  MOVLW  01
01E8:  ADDWFC FF7,F
01EA:  TBLRD*+
01EC:  MOVF   FF5,W
01EE:  BTFSC  0D.7
01F0:  BSF    FF2.7
01F2:  RETURN 0
01F4:  DATA 24,50
01F6:  DATA 20,3C
01F8:  DATA 6C,65
01FA:  DATA 76,65
01FC:  DATA 6C,3E
01FE:  DATA 3C,63
0200:  DATA 72,3E
0202:  DATA 20,20
0204:  DATA 09,53
0206:  DATA 65,74
0208:  DATA 20,70
020A:  DATA 6F,77
020C:  DATA 65,72
020E:  DATA 20,6C
0210:  DATA 65,76
0212:  DATA 65,6C
0214:  DATA 20,68
0216:  DATA 69,67
0218:  DATA 68,28
021A:  DATA 31,29
021C:  DATA 20,6F
021E:  DATA 72,20
0220:  DATA 6C,6F
0222:  DATA 77,28
0224:  DATA 30,29
0226:  DATA 0D,0A
0228:  DATA 00,00
022A:  MOVFF  FF2,0D
022E:  BCF    FF2.7
0230:  CLRF   FF7
0232:  ADDLW  44
0234:  MOVWF  FF6
0236:  MOVLW  02
0238:  ADDWFC FF7,F
023A:  TBLRD*+
023C:  MOVF   FF5,W
023E:  BTFSC  0D.7
0240:  BSF    FF2.7
0242:  RETURN 0
0244:  DATA 24,4C
0246:  DATA 44,20
0248:  DATA 3C,66
024A:  DATA 77,64
024C:  DATA 3E,3C
024E:  DATA 63,72
0250:  DATA 3E,20
0252:  DATA 20,09
0254:  DATA 53,65
0256:  DATA 74,20
0258:  DATA 46,77
025A:  DATA 64,20
025C:  DATA 70,6F
025E:  DATA 77,65
0260:  DATA 72,20
0262:  DATA 6D,65
0264:  DATA 61,73
0266:  DATA 75,72
0268:  DATA 65,6D
026A:  DATA 65,6E
026C:  DATA 74,20
026E:  DATA 6F,6E
0270:  DATA 28,31
0272:  DATA 29,20
0274:  DATA 6F,72
0276:  DATA 20,6F
0278:  DATA 66,66
027A:  DATA 28,30
027C:  DATA 29,0D
027E:  DATA 0A,00
0280:  MOVFF  FF2,0D
0284:  BCF    FF2.7
0286:  CLRF   FF7
0288:  ADDLW  9A
028A:  MOVWF  FF6
028C:  MOVLW  02
028E:  ADDWFC FF7,F
0290:  TBLRD*+
0292:  MOVF   FF5,W
0294:  BTFSC  0D.7
0296:  BSF    FF2.7
0298:  RETURN 0
029A:  DATA 24,51
029C:  DATA 3C,63
029E:  DATA 72,3E
02A0:  DATA 20,20
02A2:  DATA 09,52
02A4:  DATA 65,71
02A6:  DATA 75,65
02A8:  DATA 73,74
02AA:  DATA 20,73
02AC:  DATA 74,61
02AE:  DATA 74,75
02B0:  DATA 73,0D
02B2:  DATA 0A,00
02B4:  MOVFF  FF2,0D
02B8:  BCF    FF2.7
02BA:  CLRF   FF7
02BC:  ADDLW  CE
02BE:  MOVWF  FF6
02C0:  MOVLW  02
02C2:  ADDWFC FF7,F
02C4:  TBLRD*+
02C6:  MOVF   FF5,W
02C8:  BTFSC  0D.7
02CA:  BSF    FF2.7
02CC:  RETURN 0
02CE:  DATA 24,42
02D0:  DATA 4D,3C
02D2:  DATA 63,72
02D4:  DATA 3E,20
02D6:  DATA 20,09
02D8:  DATA 42,49
02DA:  DATA 54,20
02DC:  DATA 4D,6F
02DE:  DATA 64,65
02E0:  DATA 20,4F
02E2:  DATA 4E,28
02E4:  DATA 31,29
02E6:  DATA 20,4F
02E8:  DATA 46,46
02EA:  DATA 28,30
02EC:  DATA 29,00
02EE:  MOVFF  FF2,0D
02F2:  BCF    FF2.7
02F4:  CLRF   FF7
02F6:  ADDLW  08
02F8:  MOVWF  FF6
02FA:  MOVLW  03
02FC:  ADDWFC FF7,F
02FE:  TBLRD*+
0300:  MOVF   FF5,W
0302:  BTFSC  0D.7
0304:  BSF    FF2.7
0306:  RETURN 0
0308:  DATA 24,54
030A:  DATA 52,3C
030C:  DATA 63,72
030E:  DATA 3E,20
0310:  DATA 20,09
0312:  DATA 54,52
0314:  DATA 41,4E
0316:  DATA 53,49
0318:  DATA 56,45
031A:  DATA 52,28
031C:  DATA 54,29
031E:  DATA 20,52
0320:  DATA 45,43
0322:  DATA 49,56
0324:  DATA 45,52
0326:  DATA 28,52
0328:  DATA 29,00
032A:  MOVFF  FF2,0D
032E:  BCF    FF2.7
0330:  CLRF   FF7
0332:  ADDLW  44
0334:  MOVWF  FF6
0336:  MOVLW  03
0338:  ADDWFC FF7,F
033A:  TBLRD*+
033C:  MOVF   FF5,W
033E:  BTFSC  0D.7
0340:  BSF    FF2.7
0342:  RETURN 0
0344:  DATA 47,4F
0346:  DATA 4F,44
0348:  DATA 00,00
034A:  MOVFF  FF2,0D
034E:  BCF    FF2.7
0350:  CLRF   FF7
0352:  ADDLW  64
0354:  MOVWF  FF6
0356:  MOVLW  03
0358:  ADDWFC FF7,F
035A:  TBLRD*+
035C:  MOVF   FF5,W
035E:  BTFSC  0D.7
0360:  BSF    FF2.7
0362:  RETURN 0
0364:  DATA 42,41
0366:  DATA 44,00
0368:  MOVFF  FF2,0D
036C:  BCF    FF2.7
036E:  CLRF   FF7
0370:  ADDLW  82
0372:  MOVWF  FF6
0374:  MOVLW  03
0376:  ADDWFC FF7,F
0378:  TBLRD*+
037A:  MOVF   FF5,W
037C:  BTFSC  0D.7
037E:  BSF    FF2.7
0380:  RETURN 0
0382:  DATA 4F,4E
0384:  DATA 00,00
0386:  MOVFF  FF2,0D
038A:  BCF    FF2.7
038C:  CLRF   FF7
038E:  ADDLW  A0
0390:  MOVWF  FF6
0392:  MOVLW  03
0394:  ADDWFC FF7,F
0396:  TBLRD*+
0398:  MOVF   FF5,W
039A:  BTFSC  0D.7
039C:  BSF    FF2.7
039E:  RETURN 0
03A0:  DATA 4F,46
03A2:  DATA 46,00
03A4:  MOVFF  FF2,0D
03A8:  BCF    FF2.7
03AA:  CLRF   FF7
03AC:  ADDLW  BE
03AE:  MOVWF  FF6
03B0:  MOVLW  03
03B2:  ADDWFC FF7,F
03B4:  TBLRD*+
03B6:  MOVF   FF5,W
03B8:  BTFSC  0D.7
03BA:  BSF    FF2.7
03BC:  RETURN 0
03BE:  DATA 53,54
03C0:  DATA 41,52
03C2:  DATA 54,00
03C4:  MOVFF  FF2,0D
03C8:  BCF    FF2.7
03CA:  CLRF   FF7
03CC:  ADDLW  DE
03CE:  MOVWF  FF6
03D0:  MOVLW  03
03D2:  ADDWFC FF7,F
03D4:  TBLRD*+
03D6:  MOVF   FF5,W
03D8:  BTFSC  0D.7
03DA:  BSF    FF2.7
03DC:  RETURN 0
03DE:  DATA 53,54
03E0:  DATA 4F,50
03E2:  DATA 00,00
03E4:  MOVFF  FF2,0D
03E8:  BCF    FF2.7
03EA:  CLRF   FF7
03EC:  ADDLW  FE
03EE:  MOVWF  FF6
03F0:  MOVLW  03
03F2:  ADDWFC FF7,F
03F4:  TBLRD*+
03F6:  MOVF   FF5,W
03F8:  BTFSC  0D.7
03FA:  BSF    FF2.7
03FC:  RETURN 0
03FE:  DATA 4C,4F
0400:  DATA 43,4B
0402:  DATA 00,00
0404:  MOVFF  FF2,0D
0408:  BCF    FF2.7
040A:  CLRF   FF7
040C:  ADDLW  1E
040E:  MOVWF  FF6
0410:  MOVLW  04
0412:  ADDWFC FF7,F
0414:  TBLRD*+
0416:  MOVF   FF5,W
0418:  BTFSC  0D.7
041A:  BSF    FF2.7
041C:  RETURN 0
041E:  DATA 4E,4F
0420:  DATA 54,20
0422:  DATA 4C,4F
0424:  DATA 43,4B
0426:  DATA 00,00
0428:  MOVFF  FF2,0D
042C:  BCF    FF2.7
042E:  CLRF   FF7
0430:  ADDLW  42
0432:  MOVWF  FF6
0434:  MOVLW  04
0436:  ADDWFC FF7,F
0438:  TBLRD*+
043A:  MOVF   FF5,W
043C:  BTFSC  0D.7
043E:  BSF    FF2.7
0440:  RETURN 0
0442:  DATA 48,49
0444:  DATA 47,48
0446:  DATA 00,00
0448:  MOVFF  FF2,0D
044C:  BCF    FF2.7
044E:  CLRF   FF7
0450:  ADDLW  62
0452:  MOVWF  FF6
0454:  MOVLW  04
0456:  ADDWFC FF7,F
0458:  TBLRD*+
045A:  MOVF   FF5,W
045C:  BTFSC  0D.7
045E:  BSF    FF2.7
0460:  RETURN 0
0462:  DATA 4C,4F
0464:  DATA 57,00
0466:  MOVFF  FF2,0D
046A:  BCF    FF2.7
046C:  CLRF   FF7
046E:  ADDLW  80
0470:  MOVWF  FF6
0472:  MOVLW  04
0474:  ADDWFC FF7,F
0476:  TBLRD*+
0478:  MOVF   FF5,W
047A:  BTFSC  0D.7
047C:  BSF    FF2.7
047E:  RETURN 0
0480:  DATA 0D,0A
0482:  DATA 24,46
0484:  DATA 41,49
0486:  DATA 4C,0D
0488:  DATA 0A,00
048A:  MOVFF  FF2,0D
048E:  BCF    FF2.7
0490:  CLRF   FF7
0492:  ADDLW  A4
0494:  MOVWF  FF6
0496:  MOVLW  04
0498:  ADDWFC FF7,F
049A:  TBLRD*+
049C:  MOVF   FF5,W
049E:  BTFSC  0D.7
04A0:  BSF    FF2.7
04A2:  RETURN 0
04A4:  DATA 0D,0A
04A6:  DATA 24,54
04A8:  DATA 0D,0A
04AA:  DATA 00,00
04AC:  MOVFF  FF2,0D
04B0:  BCF    FF2.7
04B2:  CLRF   FF7
04B4:  ADDLW  C6
04B6:  MOVWF  FF6
04B8:  MOVLW  04
04BA:  ADDWFC FF7,F
04BC:  TBLRD*+
04BE:  MOVF   FF5,W
04C0:  BTFSC  0D.7
04C2:  BSF    FF2.7
04C4:  RETURN 0
04C6:  DATA 0D,0A
04C8:  DATA 24,46
04CA:  DATA 41,55
04CC:  DATA 4C,54
04CE:  DATA 0D,0A
04D0:  DATA 00,00
04D2:  MOVFF  FF2,0D
04D6:  BCF    FF2.7
04D8:  CLRF   FF7
04DA:  ADDLW  EC
04DC:  MOVWF  FF6
04DE:  MOVLW  04
04E0:  ADDWFC FF7,F
04E2:  TBLRD*+
04E4:  MOVF   FF5,W
04E6:  BTFSC  0D.7
04E8:  BSF    FF2.7
04EA:  RETURN 0
04EC:  DATA 0D,0A
04EE:  DATA 24,4F
04F0:  DATA 4B,0D
04F2:  DATA 0A,00
04F4:  MOVFF  FF2,0D
04F8:  BCF    FF2.7
04FA:  CLRF   FF7
04FC:  ADDLW  0E
04FE:  MOVWF  FF6
0500:  MOVLW  05
0502:  ADDWFC FF7,F
0504:  TBLRD*+
0506:  MOVF   FF5,W
0508:  BTFSC  0D.7
050A:  BSF    FF2.7
050C:  RETURN 0
050E:  DATA 0D,0A
0510:  DATA 42,52
0512:  DATA 45,41
0514:  DATA 4B,0D
0516:  DATA 0A,00
0518:  MOVFF  FF2,0D
051C:  BCF    FF2.7
051E:  CLRF   FF7
0520:  ADDLW  32
0522:  MOVWF  FF6
0524:  MOVLW  05
0526:  ADDWFC FF7,F
0528:  TBLRD*+
052A:  MOVF   FF5,W
052C:  BTFSC  0D.7
052E:  BSF    FF2.7
0530:  RETURN 0
0532:  DATA 42,41
0534:  DATA 31,35
0536:  DATA 33,33
0538:  DATA 54,58
053A:  DATA 20,56
053C:  DATA 31,2E
053E:  DATA 30,00
*
05DE:  DATA 0D,0A
05E0:  DATA 46,52
05E2:  DATA 45,51
05E4:  DATA 3D,25
05E6:  DATA 6C,75
05E8:  DATA 2C,20
05EA:  DATA 52,45
05EC:  DATA 56,3D
05EE:  DATA 25,73
05F0:  DATA 2C,20
05F2:  DATA 4C,49
05F4:  DATA 47,48
05F6:  DATA 54,3D
05F8:  DATA 25,73
05FA:  DATA 2C,20
05FC:  DATA 46,57
05FE:  DATA 44,3D
0600:  DATA 25,6C
0602:  DATA 75,64
0604:  DATA 42,4D
0606:  DATA 2C,20
0608:  DATA 54,45
060A:  DATA 4D,50
060C:  DATA 3D,25
060E:  DATA 35,2E
0610:  DATA 31,66
0612:  DATA 2C,20
0614:  DATA 54,52
0616:  DATA 41,4E
0618:  DATA 53,4D
061A:  DATA 49,54
061C:  DATA 3D,25
061E:  DATA 73,2C
0620:  DATA 20,49
0622:  DATA 44,3D
0624:  DATA 25,6C
0626:  DATA 75,2C
0628:  DATA 20,44
062A:  DATA 43,3D
062C:  DATA 25,30
062E:  DATA 32,6C
0630:  DATA 75,25
0632:  DATA 30,32
0634:  DATA 75,2C
0636:  DATA 20,56
0638:  DATA 45,52
063A:  DATA 20,25
063C:  DATA 6C,73
063E:  DATA 2C,20
0640:  DATA 00,00
0642:  DATA 56,31
0644:  DATA 2E,30
0646:  DATA 00,00
0648:  DATA 42,49
064A:  DATA 54,20
064C:  DATA 4D,4F
064E:  DATA 44,45
0650:  DATA 3D,25
0652:  DATA 73,2C
0654:  DATA 20,53
0656:  DATA 59,4E
0658:  DATA 54,48
065A:  DATA 20,4C
065C:  DATA 4F,43
065E:  DATA 4B,3D
0660:  DATA 25,73
0662:  DATA 2C,20
0664:  DATA 50,4F
0666:  DATA 57,45
0668:  DATA 52,3D
066A:  DATA 25,73
066C:  DATA 2C,20
066E:  DATA 00,00
0670:  DATA 24,4F
0672:  DATA 4E,00
0674:  DATA 0D,0A
0676:  DATA 24,46
0678:  DATA 41,49
067A:  DATA 4C,0D
067C:  DATA 0A,00
*
0772:  TSTFSZ 01
0774:  BRA    077C
0776:  TSTFSZ 02
0778:  BRA    077E
077A:  BRA    078A
077C:  INCF   02,F
077E:  MOVFF  00,FEE
0782:  DECFSZ 01,F
0784:  BRA    077E
0786:  DECFSZ 02,F
0788:  BRA    077E
078A:  GOTO   07CE (RETURN)
*
09AC:  MOVLB  1
09AE:  MOVF   xE0,W
09B0:  MULWF  xE2
09B2:  MOVFF  FF3,01
09B6:  MOVFF  FF4,00
09BA:  MULWF  xE3
09BC:  MOVF   FF3,W
09BE:  ADDWF  00,F
09C0:  MOVF   xE1,W
09C2:  MULWF  xE2
09C4:  MOVF   FF3,W
09C6:  ADDWFC 00,W
09C8:  MOVWF  02
09CA:  MOVLB  0
09CC:  GOTO   0BFA (RETURN)
09D0:  MOVLB  1
09D2:  CLRF   xF8
09D4:  CLRF   xF9
09D6:  MOVLW  01
09D8:  MOVWF  xFA
09DA:  CLRF   FDA
09DC:  CLRF   FD9
09DE:  MOVWF  xFD
09E0:  MOVLW  F0
09E2:  MOVWF  xFC
09E4:  MOVLW  01
09E6:  MOVWF  FEA
09E8:  MOVLW  F4
09EA:  MOVWF  FE9
09EC:  MOVFF  1FD,FE2
09F0:  MOVFF  1FC,FE1
09F4:  MOVFF  1FA,1FB
09F8:  BCF    FD8.0
09FA:  MOVF   FE5,W
09FC:  MULWF  FEE
09FE:  MOVF   FF3,W
0A00:  ADDWFC xF8,F
0A02:  MOVF   FF4,W
0A04:  ADDWFC xF9,F
0A06:  DECFSZ xFB,F
0A08:  BRA    09F8
0A0A:  MOVFF  1F8,FDE
0A0E:  MOVFF  1F9,1F8
0A12:  CLRF   xF9
0A14:  BTFSC  FD8.0
0A16:  INCF   xF9,F
0A18:  INCF   xFC,F
0A1A:  BTFSC  FD8.2
0A1C:  INCF   xFD,F
0A1E:  INCF   xFA,F
0A20:  MOVF   xFA,W
0A22:  SUBLW  05
0A24:  BNZ   09E4
0A26:  MOVLB  0
0A28:  RETURN 0
0A2A:  BTFSC  FD8.1
0A2C:  BRA    0A36
0A2E:  MOVLW  02
0A30:  MOVWF  FEA
0A32:  MOVLW  81
0A34:  MOVWF  FE9
0A36:  CLRF   00
0A38:  CLRF   01
0A3A:  CLRF   02
0A3C:  CLRF   03
0A3E:  MOVLB  2
0A40:  CLRF   x81
0A42:  CLRF   x82
0A44:  CLRF   x83
0A46:  CLRF   x84
0A48:  MOVF   x80,W
0A4A:  IORWF  x7F,W
0A4C:  IORWF  x7E,W
0A4E:  IORWF  x7D,W
0A50:  BZ    0AAA
0A52:  MOVLW  20
0A54:  MOVWF  x85
0A56:  BCF    FD8.0
0A58:  RLCF   x79,F
0A5A:  RLCF   x7A,F
0A5C:  RLCF   x7B,F
0A5E:  RLCF   x7C,F
0A60:  RLCF   x81,F
0A62:  RLCF   x82,F
0A64:  RLCF   x83,F
0A66:  RLCF   x84,F
0A68:  MOVF   x80,W
0A6A:  SUBWF  x84,W
0A6C:  BNZ   0A7E
0A6E:  MOVF   x7F,W
0A70:  SUBWF  x83,W
0A72:  BNZ   0A7E
0A74:  MOVF   x7E,W
0A76:  SUBWF  x82,W
0A78:  BNZ   0A7E
0A7A:  MOVF   x7D,W
0A7C:  SUBWF  x81,W
0A7E:  BNC   0A9E
0A80:  MOVF   x7D,W
0A82:  SUBWF  x81,F
0A84:  MOVF   x7E,W
0A86:  BTFSS  FD8.0
0A88:  INCFSZ x7E,W
0A8A:  SUBWF  x82,F
0A8C:  MOVF   x7F,W
0A8E:  BTFSS  FD8.0
0A90:  INCFSZ x7F,W
0A92:  SUBWF  x83,F
0A94:  MOVF   x80,W
0A96:  BTFSS  FD8.0
0A98:  INCFSZ x80,W
0A9A:  SUBWF  x84,F
0A9C:  BSF    FD8.0
0A9E:  RLCF   00,F
0AA0:  RLCF   01,F
0AA2:  RLCF   02,F
0AA4:  RLCF   03,F
0AA6:  DECFSZ x85,F
0AA8:  BRA    0A56
0AAA:  MOVFF  281,FEF
0AAE:  MOVFF  282,FEC
0AB2:  MOVFF  283,FEC
0AB6:  MOVFF  284,FEC
0ABA:  MOVLB  0
0ABC:  RETURN 0
*
125A:  MOVLB  1
125C:  MOVF   xE5,W
125E:  XORWF  xE7,W
1260:  ANDLW  80
1262:  MOVWF  xE9
1264:  BTFSS  xE5.7
1266:  BRA    1272
1268:  COMF   xE4,F
126A:  COMF   xE5,F
126C:  INCF   xE4,F
126E:  BTFSC  FD8.2
1270:  INCF   xE5,F
1272:  BTFSS  xE7.7
1274:  BRA    1280
1276:  COMF   xE6,F
1278:  COMF   xE7,F
127A:  INCF   xE6,F
127C:  BTFSC  FD8.2
127E:  INCF   xE7,F
1280:  MOVF   xE4,W
1282:  MULWF  xE6
1284:  MOVFF  FF3,01
1288:  MOVFF  FF4,00
128C:  MULWF  xE7
128E:  MOVF   FF3,W
1290:  ADDWF  00,F
1292:  MOVF   xE5,W
1294:  MULWF  xE6
1296:  MOVF   FF3,W
1298:  ADDWFC 00,W
129A:  MOVWF  02
129C:  BTFSS  xE9.7
129E:  BRA    12AA
12A0:  COMF   01,F
12A2:  COMF   02,F
12A4:  INCF   01,F
12A6:  BTFSC  FD8.2
12A8:  INCF   02,F
12AA:  MOVLB  0
12AC:  RETURN 0
*
146A:  TBLRD*+
146C:  MOVF   FF5,F
146E:  BZ    1488
1470:  MOVFF  FF6,1DE
1474:  MOVFF  FF7,1DF
1478:  MOVFF  FF5,1E0
147C:  BRA    1424
147E:  MOVFF  1DE,FF6
1482:  MOVFF  1DF,FF7
1486:  BRA    146A
1488:  RETURN 0
*
14B8:  MOVLW  8E
14BA:  MOVWF  00
14BC:  MOVFF  26D,01
14C0:  MOVFF  26C,02
14C4:  CLRF   03
14C6:  MOVF   01,F
14C8:  BNZ   14DC
14CA:  MOVFF  02,01
14CE:  CLRF   02
14D0:  MOVLW  08
14D2:  SUBWF  00,F
14D4:  MOVF   01,F
14D6:  BNZ   14DC
14D8:  CLRF   00
14DA:  BRA    14EC
14DC:  BCF    FD8.0
14DE:  BTFSC  01.7
14E0:  BRA    14EA
14E2:  RLCF   02,F
14E4:  RLCF   01,F
14E6:  DECF   00,F
14E8:  BRA    14DC
14EA:  BCF    01.7
14EC:  GOTO   1E04 (RETURN)
14F0:  MOVLB  2
14F2:  MOVF   x70,W
14F4:  BTFSC  FD8.2
14F6:  BRA    1642
14F8:  MOVWF  x7C
14FA:  MOVF   x74,W
14FC:  BTFSC  FD8.2
14FE:  BRA    1642
1500:  SUBWF  x7C,F
1502:  BNC   150E
1504:  MOVLW  7F
1506:  ADDWF  x7C,F
1508:  BTFSC  FD8.0
150A:  BRA    1642
150C:  BRA    151A
150E:  MOVLW  81
1510:  SUBWF  x7C,F
1512:  BTFSS  FD8.0
1514:  BRA    1642
1516:  BTFSC  FD8.2
1518:  BRA    1642
151A:  MOVFF  27C,00
151E:  CLRF   01
1520:  CLRF   02
1522:  CLRF   03
1524:  CLRF   x7B
1526:  MOVFF  271,27A
152A:  BSF    x7A.7
152C:  MOVFF  272,279
1530:  MOVFF  273,278
1534:  MOVLW  19
1536:  MOVWF  x7C
1538:  MOVF   x77,W
153A:  SUBWF  x78,F
153C:  BC    1558
153E:  MOVLW  01
1540:  SUBWF  x79,F
1542:  BC    1558
1544:  SUBWF  x7A,F
1546:  BC    1558
1548:  SUBWF  x7B,F
154A:  BC    1558
154C:  INCF   x7B,F
154E:  INCF   x7A,F
1550:  INCF   x79,F
1552:  MOVF   x77,W
1554:  ADDWF  x78,F
1556:  BRA    15A8
1558:  MOVF   x76,W
155A:  SUBWF  x79,F
155C:  BC    1582
155E:  MOVLW  01
1560:  SUBWF  x7A,F
1562:  BC    1582
1564:  SUBWF  x7B,F
1566:  BC    1582
1568:  INCF   x7B,F
156A:  INCF   x7A,F
156C:  MOVF   x76,W
156E:  ADDWF  x79,F
1570:  MOVF   x77,W
1572:  ADDWF  x78,F
1574:  BNC   15A8
1576:  INCF   x79,F
1578:  BNZ   15A8
157A:  INCF   x7A,F
157C:  BNZ   15A8
157E:  INCF   x7B,F
1580:  BRA    15A8
1582:  MOVF   x75,W
1584:  IORLW  80
1586:  SUBWF  x7A,F
1588:  BC    15A6
158A:  MOVLW  01
158C:  SUBWF  x7B,F
158E:  BC    15A6
1590:  INCF   x7B,F
1592:  MOVF   x75,W
1594:  IORLW  80
1596:  ADDWF  x7A,F
1598:  MOVF   x76,W
159A:  ADDWF  x79,F
159C:  BNC   1570
159E:  INCF   x7A,F
15A0:  BNZ   1570
15A2:  INCF   x7B,F
15A4:  BRA    1570
15A6:  BSF    03.0
15A8:  DECFSZ x7C,F
15AA:  BRA    15AE
15AC:  BRA    15C4
15AE:  BCF    FD8.0
15B0:  RLCF   x78,F
15B2:  RLCF   x79,F
15B4:  RLCF   x7A,F
15B6:  RLCF   x7B,F
15B8:  BCF    FD8.0
15BA:  RLCF   03,F
15BC:  RLCF   02,F
15BE:  RLCF   01,F
15C0:  RLCF   x7D,F
15C2:  BRA    1538
15C4:  BTFSS  x7D.0
15C6:  BRA    15D4
15C8:  BCF    FD8.0
15CA:  RRCF   01,F
15CC:  RRCF   02,F
15CE:  RRCF   03,F
15D0:  RRCF   x7D,F
15D2:  BRA    15D8
15D4:  DECF   00,F
15D6:  BZ    1642
15D8:  BTFSC  x7D.7
15DA:  BRA    1618
15DC:  BCF    FD8.0
15DE:  RLCF   x78,F
15E0:  RLCF   x79,F
15E2:  RLCF   x7A,F
15E4:  RLCF   x7B,F
15E6:  MOVF   x77,W
15E8:  SUBWF  x78,F
15EA:  BC    15FA
15EC:  MOVLW  01
15EE:  SUBWF  x79,F
15F0:  BC    15FA
15F2:  SUBWF  x7A,F
15F4:  BC    15FA
15F6:  SUBWF  x7B,F
15F8:  BNC   162E
15FA:  MOVF   x76,W
15FC:  SUBWF  x79,F
15FE:  BC    160A
1600:  MOVLW  01
1602:  SUBWF  x7A,F
1604:  BC    160A
1606:  SUBWF  x7B,F
1608:  BNC   162E
160A:  MOVF   x75,W
160C:  IORLW  80
160E:  SUBWF  x7A,F
1610:  BC    1618
1612:  MOVLW  01
1614:  SUBWF  x7B,F
1616:  BNC   162E
1618:  INCF   03,F
161A:  BNZ   162E
161C:  INCF   02,F
161E:  BNZ   162E
1620:  INCF   01,F
1622:  BNZ   162E
1624:  INCF   00,F
1626:  BZ    1642
1628:  RRCF   01,F
162A:  RRCF   02,F
162C:  RRCF   03,F
162E:  MOVFF  271,27C
1632:  MOVF   x75,W
1634:  XORWF  x7C,F
1636:  BTFSS  x7C.7
1638:  BRA    163E
163A:  BSF    01.7
163C:  BRA    164A
163E:  BCF    01.7
1640:  BRA    164A
1642:  CLRF   00
1644:  CLRF   01
1646:  CLRF   02
1648:  CLRF   03
164A:  MOVLB  0
164C:  GOTO   1E36 (RETURN)
1650:  MOVLB  2
1652:  MOVF   x79,W
1654:  BTFSC  FD8.2
1656:  BRA    173A
1658:  MOVWF  00
165A:  MOVF   x7D,W
165C:  BTFSC  FD8.2
165E:  BRA    173A
1660:  ADDWF  00,F
1662:  BNC   166C
1664:  MOVLW  81
1666:  ADDWF  00,F
1668:  BC    173A
166A:  BRA    1674
166C:  MOVLW  7F
166E:  SUBWF  00,F
1670:  BNC   173A
1672:  BZ    173A
1674:  MOVFF  27A,281
1678:  MOVF   x7E,W
167A:  XORWF  x81,F
167C:  BSF    x7A.7
167E:  BSF    x7E.7
1680:  MOVF   x7C,W
1682:  MULWF  x80
1684:  MOVFF  FF4,283
1688:  MOVF   x7B,W
168A:  MULWF  x7F
168C:  MOVFF  FF4,03
1690:  MOVFF  FF3,282
1694:  MULWF  x80
1696:  MOVF   FF3,W
1698:  ADDWF  x83,F
169A:  MOVF   FF4,W
169C:  ADDWFC x82,F
169E:  MOVLW  00
16A0:  ADDWFC 03,F
16A2:  MOVF   x7C,W
16A4:  MULWF  x7F
16A6:  MOVF   FF3,W
16A8:  ADDWF  x83,F
16AA:  MOVF   FF4,W
16AC:  ADDWFC x82,F
16AE:  MOVLW  00
16B0:  CLRF   02
16B2:  ADDWFC 03,F
16B4:  ADDWFC 02,F
16B6:  MOVF   x7A,W
16B8:  MULWF  x80
16BA:  MOVF   FF3,W
16BC:  ADDWF  x82,F
16BE:  MOVF   FF4,W
16C0:  ADDWFC 03,F
16C2:  MOVLW  00
16C4:  ADDWFC 02,F
16C6:  MOVF   x7A,W
16C8:  MULWF  x7F
16CA:  MOVF   FF3,W
16CC:  ADDWF  03,F
16CE:  MOVF   FF4,W
16D0:  ADDWFC 02,F
16D2:  MOVLW  00
16D4:  CLRF   01
16D6:  ADDWFC 01,F
16D8:  MOVF   x7C,W
16DA:  MULWF  x7E
16DC:  MOVF   FF3,W
16DE:  ADDWF  x82,F
16E0:  MOVF   FF4,W
16E2:  ADDWFC 03,F
16E4:  MOVLW  00
16E6:  ADDWFC 02,F
16E8:  ADDWFC 01,F
16EA:  MOVF   x7B,W
16EC:  MULWF  x7E
16EE:  MOVF   FF3,W
16F0:  ADDWF  03,F
16F2:  MOVF   FF4,W
16F4:  ADDWFC 02,F
16F6:  MOVLW  00
16F8:  ADDWFC 01,F
16FA:  MOVF   x7A,W
16FC:  MULWF  x7E
16FE:  MOVF   FF3,W
1700:  ADDWF  02,F
1702:  MOVF   FF4,W
1704:  ADDWFC 01,F
1706:  INCF   00,F
1708:  BTFSC  01.7
170A:  BRA    1716
170C:  RLCF   x82,F
170E:  RLCF   03,F
1710:  RLCF   02,F
1712:  RLCF   01,F
1714:  DECF   00,F
1716:  MOVLW  00
1718:  BTFSS  x82.7
171A:  BRA    1730
171C:  INCF   03,F
171E:  ADDWFC 02,F
1720:  ADDWFC 01,F
1722:  MOVF   01,W
1724:  BNZ   1730
1726:  MOVF   02,W
1728:  BNZ   1730
172A:  MOVF   03,W
172C:  BNZ   1730
172E:  INCF   00,F
1730:  BTFSC  x81.7
1732:  BSF    01.7
1734:  BTFSS  x81.7
1736:  BCF    01.7
1738:  BRA    1742
173A:  CLRF   00
173C:  CLRF   01
173E:  CLRF   02
1740:  CLRF   03
1742:  MOVLB  0
1744:  RETURN 0
1746:  MOVLW  80
1748:  BTFSS  FD8.1
174A:  BRA    1750
174C:  MOVLB  2
174E:  XORWF  x71,F
1750:  MOVLB  2
1752:  CLRF   x76
1754:  CLRF   x77
1756:  MOVFF  26D,275
175A:  MOVF   x71,W
175C:  XORWF  x75,F
175E:  MOVF   x6C,W
1760:  BTFSC  FD8.2
1762:  BRA    1922
1764:  MOVWF  x74
1766:  MOVWF  00
1768:  MOVF   x70,W
176A:  BTFSC  FD8.2
176C:  BRA    1934
176E:  SUBWF  x74,F
1770:  BTFSC  FD8.2
1772:  BRA    187A
1774:  BNC   17F2
1776:  MOVFF  271,27A
177A:  BSF    x7A.7
177C:  MOVFF  272,279
1780:  MOVFF  273,278
1784:  CLRF   x77
1786:  BCF    FD8.0
1788:  RRCF   x7A,F
178A:  RRCF   x79,F
178C:  RRCF   x78,F
178E:  RRCF   x77,F
1790:  DECFSZ x74,F
1792:  BRA    1784
1794:  BTFSS  x75.7
1796:  BRA    179E
1798:  BSF    x76.0
179A:  BRA    195C
179C:  BCF    x76.0
179E:  BCF    x74.0
17A0:  BSF    x76.4
17A2:  MOVLW  02
17A4:  MOVWF  FEA
17A6:  MOVLW  6F
17A8:  MOVWF  FE9
17AA:  BRA    1982
17AC:  BCF    x76.4
17AE:  BTFSC  x75.7
17B0:  BRA    17C6
17B2:  BTFSS  x74.0
17B4:  BRA    17DC
17B6:  RRCF   x7A,F
17B8:  RRCF   x79,F
17BA:  RRCF   x78,F
17BC:  RRCF   x77,F
17BE:  INCF   00,F
17C0:  BTFSC  FD8.2
17C2:  BRA    1952
17C4:  BRA    17DC
17C6:  BTFSC  x7A.7
17C8:  BRA    17E2
17CA:  BCF    FD8.0
17CC:  RLCF   x77,F
17CE:  RLCF   x78,F
17D0:  RLCF   x79,F
17D2:  RLCF   x7A,F
17D4:  DECF   00,F
17D6:  BTFSC  FD8.2
17D8:  BRA    1952
17DA:  BRA    17C6
17DC:  BSF    x76.6
17DE:  BRA    18BA
17E0:  BCF    x76.6
17E2:  MOVFF  26D,275
17E6:  BTFSS  x6D.7
17E8:  BRA    17EE
17EA:  BSF    x7A.7
17EC:  BRA    1944
17EE:  BCF    x7A.7
17F0:  BRA    1944
17F2:  MOVFF  270,274
17F6:  MOVFF  270,00
17FA:  MOVF   x6C,W
17FC:  SUBWF  x74,F
17FE:  MOVFF  26D,27A
1802:  BSF    x7A.7
1804:  MOVFF  26E,279
1808:  MOVFF  26F,278
180C:  CLRF   x77
180E:  BCF    FD8.0
1810:  RRCF   x7A,F
1812:  RRCF   x79,F
1814:  RRCF   x78,F
1816:  RRCF   x77,F
1818:  DECFSZ x74,F
181A:  BRA    180C
181C:  BTFSS  x75.7
181E:  BRA    1826
1820:  BSF    x76.1
1822:  BRA    195C
1824:  BCF    x76.1
1826:  BCF    x74.0
1828:  BSF    x76.5
182A:  MOVLW  02
182C:  MOVWF  FEA
182E:  MOVLW  73
1830:  MOVWF  FE9
1832:  BRA    1982
1834:  BCF    x76.5
1836:  BTFSC  x75.7
1838:  BRA    184E
183A:  BTFSS  x74.0
183C:  BRA    1864
183E:  RRCF   x7A,F
1840:  RRCF   x79,F
1842:  RRCF   x78,F
1844:  RRCF   x77,F
1846:  INCF   00,F
1848:  BTFSC  FD8.2
184A:  BRA    1952
184C:  BRA    1864
184E:  BTFSC  x7A.7
1850:  BRA    186A
1852:  BCF    FD8.0
1854:  RLCF   x77,F
1856:  RLCF   x78,F
1858:  RLCF   x79,F
185A:  RLCF   x7A,F
185C:  DECF   00,F
185E:  BTFSC  FD8.2
1860:  BRA    1952
1862:  BRA    184E
1864:  BSF    x76.7
1866:  BRA    18BA
1868:  BCF    x76.7
186A:  MOVFF  271,275
186E:  BTFSS  x71.7
1870:  BRA    1876
1872:  BSF    x7A.7
1874:  BRA    1944
1876:  BCF    x7A.7
1878:  BRA    1944
187A:  MOVFF  271,27A
187E:  BSF    x7A.7
1880:  MOVFF  272,279
1884:  MOVFF  273,278
1888:  BTFSS  x75.7
188A:  BRA    1894
188C:  BCF    x7A.7
188E:  BSF    x76.2
1890:  BRA    195C
1892:  BCF    x76.2
1894:  CLRF   x77
1896:  BCF    x74.0
1898:  MOVLW  02
189A:  MOVWF  FEA
189C:  MOVLW  6F
189E:  MOVWF  FE9
18A0:  BRA    1982
18A2:  BTFSC  x75.7
18A4:  BRA    18DE
18A6:  MOVFF  26D,275
18AA:  BTFSS  x74.0
18AC:  BRA    18BA
18AE:  RRCF   x7A,F
18B0:  RRCF   x79,F
18B2:  RRCF   x78,F
18B4:  RRCF   x77,F
18B6:  INCF   00,F
18B8:  BZ    1952
18BA:  BTFSS  x77.7
18BC:  BRA    18D4
18BE:  INCF   x78,F
18C0:  BNZ   18D4
18C2:  INCF   x79,F
18C4:  BNZ   18D4
18C6:  INCF   x7A,F
18C8:  BNZ   18D4
18CA:  RRCF   x7A,F
18CC:  RRCF   x79,F
18CE:  RRCF   x78,F
18D0:  INCF   00,F
18D2:  BZ    1952
18D4:  BTFSC  x76.6
18D6:  BRA    17E0
18D8:  BTFSC  x76.7
18DA:  BRA    1868
18DC:  BRA    1916
18DE:  MOVLW  80
18E0:  XORWF  x7A,F
18E2:  BTFSS  x7A.7
18E4:  BRA    18EE
18E6:  BRA    195C
18E8:  MOVFF  271,275
18EC:  BRA    1902
18EE:  MOVFF  26D,275
18F2:  MOVF   x7A,F
18F4:  BNZ   1902
18F6:  MOVF   x79,F
18F8:  BNZ   1902
18FA:  MOVF   x78,F
18FC:  BNZ   1902
18FE:  CLRF   00
1900:  BRA    1944
1902:  BTFSC  x7A.7
1904:  BRA    1916
1906:  BCF    FD8.0
1908:  RLCF   x77,F
190A:  RLCF   x78,F
190C:  RLCF   x79,F
190E:  RLCF   x7A,F
1910:  DECFSZ 00,F
1912:  BRA    1902
1914:  BRA    1952
1916:  BTFSS  x75.7
1918:  BRA    191E
191A:  BSF    x7A.7
191C:  BRA    1944
191E:  BCF    x7A.7
1920:  BRA    1944
1922:  MOVFF  270,00
1926:  MOVFF  271,27A
192A:  MOVFF  272,279
192E:  MOVFF  273,278
1932:  BRA    1944
1934:  MOVFF  26C,00
1938:  MOVFF  26D,27A
193C:  MOVFF  26E,279
1940:  MOVFF  26F,278
1944:  MOVFF  27A,01
1948:  MOVFF  279,02
194C:  MOVFF  278,03
1950:  BRA    19BA
1952:  CLRF   00
1954:  CLRF   01
1956:  CLRF   02
1958:  CLRF   03
195A:  BRA    19BA
195C:  CLRF   x77
195E:  COMF   x78,F
1960:  COMF   x79,F
1962:  COMF   x7A,F
1964:  COMF   x77,F
1966:  INCF   x77,F
1968:  BNZ   1974
196A:  INCF   x78,F
196C:  BNZ   1974
196E:  INCF   x79,F
1970:  BNZ   1974
1972:  INCF   x7A,F
1974:  BTFSC  x76.0
1976:  BRA    179C
1978:  BTFSC  x76.1
197A:  BRA    1824
197C:  BTFSC  x76.2
197E:  BRA    1892
1980:  BRA    18E8
1982:  MOVF   FEF,W
1984:  ADDWF  x78,F
1986:  BNC   1992
1988:  INCF   x79,F
198A:  BNZ   1992
198C:  INCF   x7A,F
198E:  BTFSC  FD8.2
1990:  BSF    x74.0
1992:  MOVF   FED,F
1994:  MOVF   FEF,W
1996:  ADDWF  x79,F
1998:  BNC   19A0
199A:  INCF   x7A,F
199C:  BTFSC  FD8.2
199E:  BSF    x74.0
19A0:  MOVF   FED,F
19A2:  MOVF   FEF,W
19A4:  BTFSC  FEF.7
19A6:  BRA    19AA
19A8:  XORLW  80
19AA:  ADDWF  x7A,F
19AC:  BTFSC  FD8.0
19AE:  BSF    x74.0
19B0:  BTFSC  x76.4
19B2:  BRA    17AC
19B4:  BTFSC  x76.5
19B6:  BRA    1834
19B8:  BRA    18A2
19BA:  MOVLB  0
19BC:  RETURN 0
19BE:  MOVFF  173,FEA
19C2:  MOVFF  172,FE9
19C6:  MOVLB  2
19C8:  MOVFF  279,FEF
19CC:  INCF   FE9,F
19CE:  BTFSC  FD8.2
19D0:  INCF   FEA,F
19D2:  CLRF   FEF
19D4:  MOVLB  1
19D6:  INCF   x72,F
19D8:  BTFSC  FD8.2
19DA:  INCF   x73,F
19DC:  MOVLB  0
19DE:  RETURN 0
19E0:  TBLRD*+
19E2:  MOVFF  FF6,26D
19E6:  MOVFF  FF7,26E
19EA:  MOVFF  FF5,279
19EE:  RCALL  19BE
19F0:  MOVFF  26D,FF6
19F4:  MOVFF  26E,FF7
19F8:  MOVLB  2
19FA:  DECFSZ x6C,F
19FC:  BRA    1A00
19FE:  BRA    1A04
1A00:  MOVLB  0
1A02:  BRA    19E0
1A04:  MOVLB  0
1A06:  RETURN 0
1A08:  MOVFF  FEA,274
1A0C:  MOVFF  FE9,273
1A10:  MOVLB  2
1A12:  SWAPF  x6D,W
1A14:  IORLW  F0
1A16:  MOVWF  x6F
1A18:  ADDWF  x6F,F
1A1A:  ADDLW  E2
1A1C:  MOVWF  x70
1A1E:  ADDLW  32
1A20:  MOVWF  x72
1A22:  MOVF   x6D,W
1A24:  ANDLW  0F
1A26:  ADDWF  x70,F
1A28:  ADDWF  x70,F
1A2A:  ADDWF  x72,F
1A2C:  ADDLW  E9
1A2E:  MOVWF  x71
1A30:  ADDWF  x71,F
1A32:  ADDWF  x71,F
1A34:  SWAPF  x6C,W
1A36:  ANDLW  0F
1A38:  ADDWF  x71,F
1A3A:  ADDWF  x72,F
1A3C:  RLCF   x71,F
1A3E:  RLCF   x72,F
1A40:  COMF   x72,F
1A42:  RLCF   x72,F
1A44:  MOVF   x6C,W
1A46:  ANDLW  0F
1A48:  ADDWF  x72,F
1A4A:  RLCF   x6F,F
1A4C:  MOVLW  07
1A4E:  MOVWF  x6E
1A50:  MOVLW  0A
1A52:  DECF   x71,F
1A54:  ADDWF  x72,F
1A56:  BNC   1A52
1A58:  DECF   x70,F
1A5A:  ADDWF  x71,F
1A5C:  BNC   1A58
1A5E:  DECF   x6F,F
1A60:  ADDWF  x70,F
1A62:  BNC   1A5E
1A64:  DECF   x6E,F
1A66:  ADDWF  x6F,F
1A68:  BNC   1A64
1A6A:  MOVLW  02
1A6C:  MOVWF  FEA
1A6E:  MOVLW  6E
1A70:  MOVWF  FE9
1A72:  MOVLW  07
1A74:  ANDWF  x73,W
1A76:  BCF    x73.6
1A78:  ADDWF  FE9,F
1A7A:  MOVLW  72
1A7C:  SUBWF  FE9,W
1A7E:  BTFSC  FD8.2
1A80:  BSF    x73.6
1A82:  MOVF   FEF,W
1A84:  MOVWF  00
1A86:  BNZ   1A98
1A88:  BTFSC  x73.6
1A8A:  BRA    1A98
1A8C:  BTFSC  x73.4
1A8E:  BRA    1ABA
1A90:  BTFSC  x73.3
1A92:  BRA    1A98
1A94:  MOVLW  20
1A96:  BRA    1A9E
1A98:  BSF    x73.3
1A9A:  BCF    x73.4
1A9C:  MOVLW  30
1A9E:  ADDWF  00,F
1AA0:  MOVFF  FEA,26D
1AA4:  MOVFF  FE9,26C
1AA8:  MOVFF  00,279
1AAC:  MOVLB  0
1AAE:  RCALL  19BE
1AB0:  MOVFF  26D,FEA
1AB4:  MOVFF  26C,FE9
1AB8:  MOVLB  2
1ABA:  MOVF   FEE,W
1ABC:  BTFSS  x73.6
1ABE:  BRA    1A7A
1AC0:  MOVLB  0
1AC2:  RETURN 0
1AC4:  MOVF   FEF,F
1AC6:  BZ    1AE6
1AC8:  MOVFF  FEA,26D
1ACC:  MOVFF  FE9,26C
1AD0:  MOVFF  FEF,279
1AD4:  RCALL  19BE
1AD6:  MOVFF  26D,FEA
1ADA:  MOVFF  26C,FE9
1ADE:  INCF   FE9,F
1AE0:  BTFSC  FD8.2
1AE2:  INCF   FEA,F
1AE4:  BRA    1AC4
1AE6:  RETURN 0
1AE8:  MOVLB  2
1AEA:  MOVF   x79,W
1AEC:  SUBLW  B6
1AEE:  MOVWF  x79
1AF0:  CLRF   03
1AF2:  MOVFF  27A,27D
1AF6:  BSF    x7A.7
1AF8:  BCF    FD8.0
1AFA:  RRCF   x7A,F
1AFC:  RRCF   x7B,F
1AFE:  RRCF   x7C,F
1B00:  RRCF   03,F
1B02:  RRCF   02,F
1B04:  RRCF   01,F
1B06:  RRCF   00,F
1B08:  DECFSZ x79,F
1B0A:  BRA    1AF8
1B0C:  BTFSS  x7D.7
1B0E:  BRA    1B26
1B10:  COMF   00,F
1B12:  COMF   01,F
1B14:  COMF   02,F
1B16:  COMF   03,F
1B18:  INCF   00,F
1B1A:  BTFSC  FD8.2
1B1C:  INCF   01,F
1B1E:  BTFSC  FD8.2
1B20:  INCF   02,F
1B22:  BTFSC  FD8.2
1B24:  INCF   03,F
1B26:  MOVLB  0
1B28:  GOTO   1B82 (RETURN)
1B2C:  MOVF   FE9,W
1B2E:  MOVLB  2
1B30:  MOVWF  x71
1B32:  MOVF   x70,W
1B34:  MOVWF  x73
1B36:  BZ    1B6E
1B38:  MOVFF  26F,27C
1B3C:  MOVFF  26E,27B
1B40:  MOVFF  26D,27A
1B44:  MOVFF  26C,279
1B48:  CLRF   x80
1B4A:  CLRF   x7F
1B4C:  MOVLW  20
1B4E:  MOVWF  x7E
1B50:  MOVLW  82
1B52:  MOVWF  x7D
1B54:  MOVLB  0
1B56:  RCALL  1650
1B58:  MOVFF  03,26F
1B5C:  MOVFF  02,26E
1B60:  MOVFF  01,26D
1B64:  MOVFF  00,26C
1B68:  MOVLB  2
1B6A:  DECFSZ x73,F
1B6C:  BRA    1B38
1B6E:  MOVFF  26F,27C
1B72:  MOVFF  26E,27B
1B76:  MOVFF  26D,27A
1B7A:  MOVFF  26C,279
1B7E:  MOVLB  0
1B80:  BRA    1AE8
1B82:  MOVFF  03,26F
1B86:  MOVFF  02,26E
1B8A:  MOVFF  01,26D
1B8E:  MOVFF  00,26C
1B92:  MOVLB  2
1B94:  BTFSS  x6F.7
1B96:  BRA    1BB2
1B98:  DECF   x71,F
1B9A:  BSF    x71.5
1B9C:  COMF   x6C,F
1B9E:  COMF   x6D,F
1BA0:  COMF   x6E,F
1BA2:  COMF   x6F,F
1BA4:  INCF   x6C,F
1BA6:  BTFSC  FD8.2
1BA8:  INCF   x6D,F
1BAA:  BTFSC  FD8.2
1BAC:  INCF   x6E,F
1BAE:  BTFSC  FD8.2
1BB0:  INCF   x6F,F
1BB2:  MOVLW  3B
1BB4:  MOVWF  x78
1BB6:  MOVLW  9A
1BB8:  MOVWF  x77
1BBA:  MOVLW  CA
1BBC:  MOVWF  x76
1BBE:  CLRF   x75
1BC0:  MOVLW  0A
1BC2:  MOVWF  x73
1BC4:  MOVF   x70,W
1BC6:  BTFSC  FD8.2
1BC8:  INCF   x71,F
1BCA:  BSF    FD8.1
1BCC:  MOVLW  02
1BCE:  MOVWF  FEA
1BD0:  MOVLW  6C
1BD2:  MOVWF  FE9
1BD4:  MOVFF  26F,27C
1BD8:  MOVFF  26E,27B
1BDC:  MOVFF  26D,27A
1BE0:  MOVFF  26C,279
1BE4:  MOVFF  278,280
1BE8:  MOVFF  277,27F
1BEC:  MOVFF  276,27E
1BF0:  MOVFF  275,27D
1BF4:  MOVLB  0
1BF6:  CALL   0A2A
1BFA:  MOVF   01,W
1BFC:  MOVF   00,F
1BFE:  BNZ   1C26
1C00:  MOVLB  2
1C02:  INCF   x70,W
1C04:  SUBWF  x73,W
1C06:  BTFSS  FD8.2
1C08:  BRA    1C0E
1C0A:  MOVLB  0
1C0C:  BRA    1C26
1C0E:  MOVF   x71,W
1C10:  BZ    1C2C
1C12:  ANDLW  0F
1C14:  SUBWF  x73,W
1C16:  BZ    1C1A
1C18:  BC    1C9A
1C1A:  BTFSC  x71.7
1C1C:  BRA    1C9A
1C1E:  BTFSC  x71.6
1C20:  BRA    1C2C
1C22:  MOVLW  20
1C24:  BRA    1C8E
1C26:  MOVLW  20
1C28:  MOVLB  2
1C2A:  ANDWF  x71,F
1C2C:  BTFSS  x71.5
1C2E:  BRA    1C4C
1C30:  BCF    x71.5
1C32:  MOVF   x70,W
1C34:  BTFSS  FD8.2
1C36:  DECF   x71,F
1C38:  MOVF   00,W
1C3A:  MOVWF  x71
1C3C:  MOVLW  2D
1C3E:  MOVWF  x79
1C40:  MOVLB  0
1C42:  RCALL  19BE
1C44:  MOVLB  2
1C46:  MOVF   x71,W
1C48:  MOVWF  00
1C4A:  CLRF   x71
1C4C:  MOVF   x70,W
1C4E:  SUBWF  x73,W
1C50:  BNZ   1C6A
1C52:  MOVF   00,W
1C54:  MOVWF  x71
1C56:  MOVLW  2E
1C58:  MOVWF  x79
1C5A:  MOVLB  0
1C5C:  RCALL  19BE
1C5E:  MOVLB  2
1C60:  MOVF   x71,W
1C62:  MOVWF  00
1C64:  MOVLW  20
1C66:  ANDWF  x71,F
1C68:  MOVLW  00
1C6A:  MOVLW  30
1C6C:  BTFSS  x71.5
1C6E:  BRA    1C8E
1C70:  BCF    x71.5
1C72:  MOVF   x70,W
1C74:  BTFSS  FD8.2
1C76:  DECF   x71,F
1C78:  MOVF   00,W
1C7A:  MOVWF  x71
1C7C:  MOVLW  2D
1C7E:  MOVWF  x79
1C80:  MOVLB  0
1C82:  RCALL  19BE
1C84:  MOVLB  2
1C86:  MOVF   x71,W
1C88:  MOVWF  00
1C8A:  CLRF   x71
1C8C:  MOVLW  30
1C8E:  ADDWF  00,F
1C90:  MOVFF  00,279
1C94:  MOVLB  0
1C96:  RCALL  19BE
1C98:  MOVLB  2
1C9A:  BCF    FD8.1
1C9C:  MOVFF  278,27C
1CA0:  MOVFF  277,27B
1CA4:  MOVFF  276,27A
1CA8:  MOVFF  275,279
1CAC:  CLRF   x80
1CAE:  CLRF   x7F
1CB0:  CLRF   x7E
1CB2:  MOVLW  0A
1CB4:  MOVWF  x7D
1CB6:  MOVLB  0
1CB8:  CALL   0A2A
1CBC:  MOVFF  03,278
1CC0:  MOVFF  02,277
1CC4:  MOVFF  01,276
1CC8:  MOVFF  00,275
1CCC:  MOVLB  2
1CCE:  DECFSZ x73,F
1CD0:  BRA    1BCA
1CD2:  MOVLB  0
1CD4:  GOTO   22B8 (RETURN)
1CD8:  MOVLB  2
1CDA:  MOVF   x6F,W
1CDC:  CLRF   01
1CDE:  SUBWF  x6E,W
1CE0:  BC    1CE8
1CE2:  MOVFF  26E,00
1CE6:  BRA    1D00
1CE8:  CLRF   00
1CEA:  MOVLW  08
1CEC:  MOVWF  x70
1CEE:  RLCF   x6E,F
1CF0:  RLCF   00,F
1CF2:  MOVF   x6F,W
1CF4:  SUBWF  00,W
1CF6:  BTFSC  FD8.0
1CF8:  MOVWF  00
1CFA:  RLCF   01,F
1CFC:  DECFSZ x70,F
1CFE:  BRA    1CEE
1D00:  MOVLB  0
1D02:  RETURN 0
1D04:  MOVF   01,W
1D06:  MOVFF  26C,26E
1D0A:  MOVLW  64
1D0C:  MOVLB  2
1D0E:  MOVWF  x6F
1D10:  MOVLB  0
1D12:  RCALL  1CD8
1D14:  MOVFF  00,26C
1D18:  MOVF   01,W
1D1A:  MOVLW  30
1D1C:  BNZ   1D2E
1D1E:  MOVLB  2
1D20:  BTFSS  x6D.1
1D22:  BRA    1D42
1D24:  BTFSC  x6D.3
1D26:  BRA    1D42
1D28:  BTFSC  x6D.4
1D2A:  MOVLW  20
1D2C:  BRA    1D36
1D2E:  MOVLB  2
1D30:  BCF    x6D.3
1D32:  BCF    x6D.4
1D34:  BSF    x6D.0
1D36:  ADDWF  01,F
1D38:  MOVFF  01,279
1D3C:  MOVLB  0
1D3E:  RCALL  19BE
1D40:  MOVLB  2
1D42:  MOVFF  26C,26E
1D46:  MOVLW  0A
1D48:  MOVWF  x6F
1D4A:  MOVLB  0
1D4C:  RCALL  1CD8
1D4E:  MOVFF  00,26C
1D52:  MOVF   01,W
1D54:  MOVLW  30
1D56:  BNZ   1D68
1D58:  MOVLB  2
1D5A:  BTFSC  x6D.3
1D5C:  BRA    1D72
1D5E:  BTFSS  x6D.0
1D60:  BRA    1D72
1D62:  BTFSC  x6D.4
1D64:  MOVLW  20
1D66:  MOVLB  0
1D68:  ADDWF  01,F
1D6A:  MOVFF  01,279
1D6E:  RCALL  19BE
1D70:  MOVLB  2
1D72:  MOVLW  30
1D74:  ADDWF  x6C,F
1D76:  MOVFF  26C,279
1D7A:  MOVLB  0
1D7C:  RCALL  19BE
1D7E:  GOTO   232E (RETURN)
1D82:  TBLRD*+
1D84:  MOVF   FF5,F
1D86:  BZ    1DA0
1D88:  MOVFF  FF6,26C
1D8C:  MOVFF  FF7,26D
1D90:  MOVFF  FF5,279
1D94:  RCALL  19BE
1D96:  MOVFF  26C,FF6
1D9A:  MOVFF  26D,FF7
1D9E:  BRA    1D82
1DA0:  GOTO   234C (RETURN)
*
3160:  MOVFF  FF2,0D
3164:  BCF    FF2.7
3166:  ADDWF  FE8,W
3168:  CLRF   FF7
316A:  RLCF   FF7,F
316C:  ADDLW  85
316E:  MOVWF  FF6
3170:  MOVLW  31
3172:  ADDWFC FF7,F
3174:  TBLRD*-
3176:  MOVF   FF5,W
3178:  MOVWF  FFA
317A:  TBLRD*
317C:  MOVF   FF5,W
317E:  BTFSC  0D.7
3180:  BSF    FF2.7
3182:  MOVWF  FF9
3184:  DATA CC,2F
3186:  DATA D2,2F
3188:  DATA 42,30
318A:  DATA 5C,31
....................  
.................... #list 
....................  
.................... #device adc=10 
.................... #device pass_strings=in_ram 
....................  
.................... #FUSES NOWDT                   //No Watch Dog Timer 
.................... #FUSES WDT128                  //Watch Dog Timer uses 1:128 Postscale 
.................... #FUSES INTRC_IO                //Internal RC Osc, no CLKOUT 
.................... #FUSES NOBROWNOUT              //No brownout reset 
.................... #FUSES WDT_SW                  //No Watch Dog Timer, enabled in Software 
.................... #FUSES NOLVP                   //No low voltage prgming, B3(PIC16) or B5(PIC18) used for I/O 
.................... #FUSES NOPUT 
.................... #FUSES NOXINST                 //Extended set extension and Indexed Addressing mode disabled (Legacy mode) 
....................  
.................... #use delay(int=16000000, restart_wdt) 
*
07D6:  MOVLW  01
07D8:  MOVWF  FEA
07DA:  MOVLW  8A
07DC:  MOVWF  FE9
07DE:  MOVF   FEF,W
07E0:  BZ    0804
07E2:  MOVLW  05
07E4:  MOVWF  01
07E6:  MOVLW  BF
07E8:  MOVWF  00
07EA:  CLRWDT
07EC:  DECFSZ 00,F
07EE:  BRA    07EA
07F0:  DECFSZ 01,F
07F2:  BRA    07E6
07F4:  MOVLW  2E
07F6:  MOVWF  00
07F8:  DECFSZ 00,F
07FA:  BRA    07F8
07FC:  NOP   
07FE:  CLRWDT
0800:  DECFSZ FEF,F
0802:  BRA    07E2
0804:  RETURN 0
0806:  MOVLW  04
0808:  MOVLB  2
080A:  SUBWF  x72,F
080C:  BNC   0822
080E:  MOVLW  02
0810:  MOVWF  FEA
0812:  MOVLW  72
0814:  MOVWF  FE9
0816:  MOVF   FEF,W
0818:  BZ    0822
081A:  BRA    081E
081C:  CLRWDT
081E:  DECFSZ FEF,F
0820:  BRA    081C
0822:  MOVLB  0
0824:  RETURN 0
.................... #use rs232(baud=38400,parity=N,xmit=PIN_C6,rcv=PIN_C7,bits=8,stream=UART_HOST) 
....................  
.................... #use rs232(baud=115200,parity=N,xmit=PIN_D7,rcv=PIN_D6,bits=8,stream=UART_CPLD) 
*
1424:  BCF    F95.7
1426:  BCF    F8C.7
1428:  MOVLW  08
142A:  MOVWF  01
142C:  BRA    142E
142E:  NOP   
1430:  BSF    01.7
1432:  BRA    1454
1434:  BCF    01.7
1436:  MOVLB  1
1438:  RRCF   xE0,F
143A:  MOVLB  0
143C:  BTFSC  FD8.0
143E:  BSF    F8C.7
1440:  BTFSS  FD8.0
1442:  BCF    F8C.7
1444:  BSF    01.6
1446:  BRA    1454
1448:  BCF    01.6
144A:  DECFSZ 01,F
144C:  BRA    1436
144E:  BRA    1450
1450:  NOP   
1452:  BSF    F8C.7
1454:  MOVLW  05
1456:  MOVWF  FE9
1458:  DECFSZ FE9,F
145A:  BRA    1458
145C:  BRA    145E
145E:  BTFSC  01.7
1460:  BRA    1434
1462:  BTFSC  01.6
1464:  BRA    1448
1466:  GOTO   147E (RETURN)
....................  
.................... #define UINT  unsigned int16 
.................... #define SINT  signed int16 
.................... #define UCHAR int8 
.................... #define ICHAR signed int8 
.................... #define bit   int1 
.................... #define ULONG int32 
.................... #define ILONG signed int32 
....................  
.................... #opt 9 
....................  
.................... #use fast_io(a) 
.................... #use fast_io(b) 
.................... #use fast_io(c) 
.................... #use fast_io(d) 
.................... #use fast_io(e) 
....................  
....................  
....................  
.................... #include <ctype.h> 
.................... //////////////////////////////////////////////////////////////////////////// 
.................... ////        (C) Copyright 1996,2003 Custom Computer Services            //// 
.................... //// This source code may only be used by licensed users of the CCS C   //// 
.................... //// compiler.  This source code may only be distributed to other       //// 
.................... //// licensed users of the CCS C compiler.  No other use, reproduction  //// 
.................... //// or distribution is permitted without written permission.           //// 
.................... //// Derivative programs created using this software in object code     //// 
.................... //// form are not restricted in any way.                                //// 
.................... //////////////////////////////////////////////////////////////////////////// 
....................  
.................... #ifndef _CTYPE 
.................... #define _CTYPE 
....................  
.................... #define islower(x)  isamong(x,"abcdefghijklmnopqrstuvwxyz") 
.................... #define isupper(x)  isamong(x,"ABCDEFGHIJKLMNOPQRSTUVWXYZ") 
.................... #define isalnum(x)  isamong(x,"0123456789ABCDEFGHIJKLMNOPQRSTUVWXYZabcdefghijklmnopqrstuvwxyz") 
.................... #define isalpha(x)  isamong(x,"ABCDEFGHIJKLMNOPQRSTUVWXYZabcdefghijklmnopqrstuvwxyz") 
.................... #define isdigit(x)  isamong(x,"0123456789") 
.................... #define isspace(x)  ((x)==' ') 
.................... #define isxdigit(x) isamong(x,"0123456789ABCDEFabcdef") 
.................... #define iscntrl(x)  ((x)<' ') 
.................... #define isprint(x)  ((x)>=' ') 
.................... #define isgraph(x)  ((x)>' ') 
.................... #define ispunct(x)  (((x)>' ')&&!isalnum(x)) 
....................  
.................... #endif 
....................  
....................  
.................... #include "PIC18F45K22_registers.h" 
.................... #byte TOSU = 0xFFF 
.................... #word TOS = 0xFFE 
.................... #byte STKPTR = 0xFFC 
.................... #bit    STKPTR0 = STKPTR.0 
.................... #bit    STKPTR1 = STKPTR.1 
.................... #bit    STKPTR2 = STKPTR.2 
.................... #bit    STKPTR3 = STKPTR.3 
.................... #bit    STKPTR4 = STKPTR.4 
.................... #bit    STKUNF = STKPTR.6 
.................... #bit    STKFUL = STKPTR.7 
.................... #byte PCLATU = 0xFFB 
.................... #byte PCLATH = 0xFFA 
.................... #byte PCL = 0xFF9 
.................... #byte TBLPTRU = 0xFF8 
.................... #word TBLPTR = 0xFF7 
.................... #byte TABLAT = 0xFF5 
.................... #word PROD = 0xFF4 
.................... #byte INTCON = 0xFF2 
.................... #bit    RBIF = INTCON.0 
.................... #bit    INT0IF = INTCON.1 
.................... #bit    TMR0IF = INTCON.2 
.................... #bit    RBIE = INTCON.3 
.................... #bit    INT0IE = INTCON.4 
.................... #bit    TMR0IE = INTCON.5 
.................... #bit    PEIE_GIEL = INTCON.6 
.................... #bit    GIE_GIEH = INTCON.7 
.................... #byte INTCON2 = 0xFF1 
.................... #bit    RBIP = INTCON2.0 
.................... #bit    TMR0IP = INTCON2.2 
.................... #bit    INTEDG2 = INTCON2.4 
.................... #bit    INTEDG1 = INTCON2.5 
.................... #bit    INTEDG0 = INTCON2.6 
.................... #bit    RBPU = INTCON2.7 
.................... #byte INTCON3 = 0xFF0 
.................... #bit    INT1IF = INTCON3.0 
.................... #bit    INT2IF = INTCON3.1 
.................... #bit    INT1IE = INTCON3.3 
.................... #bit    INT2IE = INTCON3.4 
.................... #bit    INT1IP = INTCON3.6 
.................... #bit    INT2IP = INTCON3.7 
.................... #byte INDF0 = 0xFEF 
.................... #byte POSTINC0 = 0xFEE 
.................... #byte POSTDEC0 = 0xFED 
.................... #byte PREINC0 = 0xFEC 
.................... #byte PLUSW0 = 0xFEB 
.................... #word FSR0 = 0xFEA 
.................... #byte WREG = 0xFE8 
.................... #byte INDF1 = 0xFE7 
.................... #byte POSTINC1 = 0xFE6 
.................... #byte POSTDEC1 = 0xFE5 
.................... #byte PREINC1 = 0xFE4 
.................... #byte PLUSW1 = 0xFE3 
.................... #word FSR1 = 0xFE2 
.................... #byte BSR = 0xFE0 
.................... #byte INDF2 = 0xFDF 
.................... #byte POSTINC2 = 0xFDE 
.................... #byte POSTDEC2 = 0xFDD 
.................... #byte PREINC2 = 0xFDC 
.................... #byte PLUSW2 = 0xFDB 
.................... #word FSR2 = 0xFDA 
.................... #byte STATUS = 0xFD8 
.................... #bit    C = STATUS.0 
.................... #bit    DC = STATUS.1 
.................... #bit    Z = STATUS.2 
.................... #bit    OV = STATUS.3 
.................... #bit    N = STATUS.4 
.................... #word TMR0 = 0xFD7 
.................... #byte T0CON = 0xFD5 
.................... #bit    T0PS0 = T0CON.0 
.................... #bit    T0PS1 = T0CON.1 
.................... #bit    T0PS2 = T0CON.2 
.................... #bit    PSA = T0CON.3 
.................... #bit    T0SE = T0CON.4 
.................... #bit    T0CS = T0CON.5 
.................... #bit    T08BIT = T0CON.6 
.................... #bit    TMR0ON = T0CON.7 
.................... #byte OSCCON = 0xFD3 
.................... #bit    SCS0 = OSCCON.0 
.................... #bit    SCS1 = OSCCON.1 
.................... #bit    HFIOFS = OSCCON.2 
.................... #bit    OSTS = OSCCON.3 
.................... #bit    IRCF0 = OSCCON.4 
.................... #bit    IRCF1 = OSCCON.5 
.................... #bit    IRCF2 = OSCCON.6 
.................... #bit    IDLEN = OSCCON.7 
.................... #byte OSCCON2 = 0xFD2 
.................... #bit    LFIOFS = OSCCON2.0 
.................... #bit    MFIOFS = OSCCON2.1 
.................... #bit    PRISD = OSCCON2.2 
.................... #bit    SOSCGO = OSCCON2.3 
.................... #bit    MFIOSEL = OSCCON2.4 
.................... #bit    SOSCRUN = OSCCON2.6 
.................... #bit    PLLRDY = OSCCON2.7 
.................... #byte WDTCON = 0xFD1 
.................... #bit    SWDTEN = WDTCON.0 
.................... #byte RCON = 0xFD0 
.................... #bit    BOR = RCON.0 
.................... #bit    POR = RCON.1 
.................... #bit    PD = RCON.2 
.................... #bit    TO = RCON.3 
.................... #bit    RI = RCON.4 
.................... #bit    SBOREN = RCON.6 
.................... #bit    IPEN = RCON.7 
.................... #word TMR1 = 0xFCF 
.................... #byte T1CON = 0xFCD 
.................... #bit    TMR1ON = T1CON.0 
.................... #bit    T1RD16 = T1CON.1 
.................... #bit    T1SYNC = T1CON.2 
.................... #bit    T1SOSCEN = T1CON.3 
.................... #bit    T1CKPS0 = T1CON.4 
.................... #bit    T1CKPS1 = T1CON.5 
.................... #bit    TMR1CS0 = T1CON.6 
.................... #bit    TMR1CS1 = T1CON.7 
.................... #byte T1GCON = 0xFCC 
.................... #bit    T1GSS0 = T1GCON.0 
.................... #bit    T1GSS1 = T1GCON.1 
.................... #bit    T1GVAL = T1GCON.2 
.................... #bit    T1GGO = T1GCON.3 
.................... #bit    T1GSPM = T1GCON.4 
.................... #bit    T1GTM = T1GCON.5 
.................... #bit    T1GPOL = T1GCON.6 
.................... #bit    TMR1GE = T1GCON.7 
.................... #byte SSP1CON3 = 0xFCB 
.................... #bit    DHEN = SSP1CON3.0 
.................... #bit    AHEN = SSP1CON3.1 
.................... #bit    SBCDE = SSP1CON3.2 
.................... #bit    SDAHT = SSP1CON3.3 
.................... #bit    BOEN = SSP1CON3.4 
.................... #bit    SCIE = SSP1CON3.5 
.................... #bit    PCIE = SSP1CON3.6 
.................... #bit    ACKTIM = SSP1CON3.7 
.................... #byte SSP1MSK = 0xFCA 
.................... #byte SSP1BUF = 0xFC9 
.................... #byte SSP1ADD = 0xFC8 
.................... #byte SSP1STAT = 0xFC7 
.................... #bit    BF = SSP1STAT.0 
.................... #bit    UA = SSP1STAT.1 
.................... #bit    R = SSP1STAT.2 
.................... #bit    S = SSP1STAT.3 
.................... #bit    P = SSP1STAT.4 
.................... #bit    D = SSP1STAT.5 
.................... #bit    CKE = SSP1STAT.6 
.................... #bit    SMP = SSP1STAT.7 
.................... #byte SSP1CON1 = 0xFC6 
.................... #bit    SSPM0 = SSP1CON1.0 
.................... #bit    SSPM1 = SSP1CON1.1 
.................... #bit    SSPM2 = SSP1CON1.2 
.................... #bit    SSPM3 = SSP1CON1.3 
.................... #bit    CKP = SSP1CON1.4 
.................... #bit    SSPEN = SSP1CON1.5 
.................... #bit    SSPOV = SSP1CON1.6 
.................... #bit    WCOL = SSP1CON1.7 
.................... #byte SSP1CON2 = 0xFC5 
.................... #bit    SEN = SSP1CON2.0 
.................... #bit    RSEN = SSP1CON2.1 
.................... #bit    PEN = SSP1CON2.2 
.................... #bit    RCEN = SSP1CON2.3 
.................... #bit    ACKEN = SSP1CON2.4 
.................... #bit    ACKDT = SSP1CON2.5 
.................... #bit    ACKSTAT = SSP1CON2.6 
.................... #bit    GCEN = SSP1CON2.7 
.................... #word ADRES = 0xFC4 
.................... #byte ADCON0 = 0xFC2 
.................... #bit    ADON = ADCON0.0 
.................... #bit    GO = ADCON0.1 
.................... #bit    CHS0 = ADCON0.2 
.................... #bit    CHS1 = ADCON0.3 
.................... #bit    CHS2 = ADCON0.4 
.................... #bit    CHS3 = ADCON0.5 
.................... #bit    CHS4 = ADCON0.6 
.................... #byte ADCON1 = 0xFC1 
.................... #bit    NVCFG0 = ADCON1.0 
.................... #bit    NVCFG1 = ADCON1.1 
.................... #bit    PVCFG0 = ADCON1.2 
.................... #bit    PVCFG1 = ADCON1.3 
.................... #bit    TRIGSEL = ADCON1.7 
.................... #byte ADCON2 = 0xFC0 
.................... #bit    ADCS0 = ADCON2.0 
.................... #bit    ADCS1 = ADCON2.1 
.................... #bit    ADCS2 = ADCON2.2 
.................... #bit    ACQT0 = ADCON2.3 
.................... #bit    ACQT1 = ADCON2.4 
.................... #bit    ACQT2 = ADCON2.5 
.................... #bit    ADFM = ADCON2.7 
.................... #word CCPR1 = 0xFBF 
.................... #byte CCP1CON = 0xFBD 
.................... #bit    CCP1M0 = CCP1CON.0 
.................... #bit    CCP1M1 = CCP1CON.1 
.................... #bit    CCP1M2 = CCP1CON.2 
.................... #bit    CCP1M3 = CCP1CON.3 
.................... #bit    DC1B0 = CCP1CON.4 
.................... #bit    DC1B1 = CCP1CON.5 
.................... #bit    P1M0 = CCP1CON.6 
.................... #bit    P1M1 = CCP1CON.7 
.................... #byte TMR2 = 0xFBC 
.................... #byte PR2 = 0xFBB 
.................... #byte T2CON = 0xFBA 
.................... #bit    T2CKPS0 = T2CON.0 
.................... #bit    T2CKPS1 = T2CON.1 
.................... #bit    TMR2ON = T2CON.2 
.................... #bit    T2OUTPS0 = T2CON.3 
.................... #bit    T2OUTPS1 = T2CON.4 
.................... #bit    T2OUTPS2 = T2CON.5 
.................... #bit    T2OUTPS3 = T2CON.6 
.................... #byte PSTR1CON = 0xFB9 
.................... #bit    STR1A = PSTR1CON.0 
.................... #bit    STR1B = PSTR1CON.1 
.................... #bit    STR1C = PSTR1CON.2 
.................... #bit    STR1D = PSTR1CON.3 
.................... #bit    STR1SYNC = PSTR1CON.4 
.................... #byte BAUDCON1 = 0xFB8 
.................... #bit    ABDEN = BAUDCON1.0 
.................... #bit    WUE = BAUDCON1.1 
.................... #bit    BRG16 = BAUDCON1.3 
.................... #bit    CKTXP = BAUDCON1.4 
.................... #bit    DTRXP = BAUDCON1.5 
.................... #bit    RCIDL = BAUDCON1.6 
.................... #bit    ABDOVF = BAUDCON1.7 
.................... #byte PWM1CON = 0xFB7 
.................... #bit    P1DC0 = PWM1CON.0 
.................... #bit    P1DC1 = PWM1CON.1 
.................... #bit    P1DC2 = PWM1CON.2 
.................... #bit    P1DC3 = PWM1CON.3 
.................... #bit    P1DC4 = PWM1CON.4 
.................... #bit    P1DC5 = PWM1CON.5 
.................... #bit    P1DC6 = PWM1CON.6 
.................... #bit    P1RSEN = PWM1CON.7 
.................... #byte ECCP1AS = 0xFB6 
.................... #bit    P1SSBD0 = ECCP1AS.0 
.................... #bit    P1SSBD1 = ECCP1AS.1 
.................... #bit    P1SSAC0 = ECCP1AS.2 
.................... #bit    P1SSAC1 = ECCP1AS.3 
.................... #bit    CCP1AS0 = ECCP1AS.4 
.................... #bit    CCP1AS1 = ECCP1AS.5 
.................... #bit    CCP1AS2 = ECCP1AS.6 
.................... #bit    CCP1ASE = ECCP1AS.7 
.................... #byte T3GCON = 0xFB4 
.................... #bit    T3GSS0 = T3GCON.0 
.................... #bit    T3GSS1 = T3GCON.1 
.................... #bit    T3GVAL = T3GCON.2 
.................... #bit    T3GGO = T3GCON.3 
.................... #bit    T3GSPM = T3GCON.4 
.................... #bit    T3GTM = T3GCON.5 
.................... #bit    T3GPOL = T3GCON.6 
.................... #bit    TMR3GE = T3GCON.7 
.................... #word TMR3 = 0xFB3 
.................... #byte T3CON = 0xFB1 
.................... #bit    TMR3ON = T3CON.0 
.................... #bit    T3RD16 = T3CON.1 
.................... #bit    T3SYNC = T3CON.2 
.................... #bit    T3SOSCEN = T3CON.3 
.................... #bit    T3CKPS0 = T3CON.4 
.................... #bit    T3CKPS1 = T3CON.5 
.................... #bit    TMR3CS0 = T3CON.6 
.................... #bit    TMR3CS1 = T3CON.7 
.................... #byte SPBRGH1 = 0xFB0 
.................... #byte SPBRG1 = 0xFAF 
.................... #byte RCREG1 = 0xFAE 
.................... #byte TXREG1 = 0xFAD 
.................... #byte TXSTA1 = 0xFAC 
.................... #bit    TX9D = TXSTA1.0 
.................... #bit    TRMT = TXSTA1.1 
.................... #bit    BRGH = TXSTA1.2 
.................... #bit    SENDB = TXSTA1.3 
.................... #bit    SYNC = TXSTA1.4 
.................... #bit    TXEN = TXSTA1.5 
.................... #bit    TX9 = TXSTA1.6 
.................... #bit    CSRC = TXSTA1.7 
.................... #byte RCSTA1 = 0xFAB 
.................... #bit    RX9D = RCSTA1.0 
.................... #bit    OERR = RCSTA1.1 
.................... #bit    FERR = RCSTA1.2 
.................... #bit    ADDEN = RCSTA1.3 
.................... #bit    CREN = RCSTA1.4 
.................... #bit    SREN = RCSTA1.5 
.................... #bit    RX9 = RCSTA1.6 
.................... #bit    SPEN = RCSTA1.7 
.................... #byte EEADR = 0xFA9 
.................... #byte EEDATA = 0xFA8 
.................... #byte EECON2 = 0xFA7 
.................... #byte EECON1 = 0xFA6 
.................... #bit    RD = EECON1.0 
.................... #bit    WR = EECON1.1 
.................... #bit    WREN = EECON1.2 
.................... #bit    WRERR = EECON1.3 
.................... #bit    FREE = EECON1.4 
.................... #bit    CFGS = EECON1.6 
.................... #bit    EEPGD = EECON1.7 
.................... #byte IPR3 = 0xFA5 
.................... #bit    TMR1GIP = IPR3.0 
.................... #bit    TMR3GIP = IPR3.1 
.................... #bit    TMR5GIP = IPR3.2 
.................... #bit    CTMUIP = IPR3.3 
.................... #bit    TX2IP = IPR3.4 
.................... #bit    RC2IP = IPR3.5 
.................... #bit    BCL2IP = IPR3.6 
.................... #bit    SSP2IP = IPR3.7 
.................... #byte PIR3 = 0xFA4 
.................... #bit    TMR1GIF = PIR3.0 
.................... #bit    TMR3GIF = PIR3.1 
.................... #bit    TMR5GIF = PIR3.2 
.................... #bit    CTMUIF = PIR3.3 
.................... #bit    TX2IF = PIR3.4 
.................... #bit    RC2IF = PIR3.5 
.................... #bit    BCL2IF = PIR3.6 
.................... #bit    SSP2IF = PIR3.7 
.................... #byte PIE3 = 0xFA3 
.................... #bit    TMR1GIE = PIE3.0 
.................... #bit    TMR3GIE = PIE3.1 
.................... #bit    TMR5GIE = PIE3.2 
.................... #bit    CTMUIE = PIE3.3 
.................... #bit    TX2IE = PIE3.4 
.................... #bit    RC2IE = PIE3.5 
.................... #bit    BCL2IE = PIE3.6 
.................... #bit    SSP2IE = PIE3.7 
.................... #byte IPR2 = 0xFA2 
.................... #bit    CCP2IP = IPR2.0 
.................... #bit    TMR3IP = IPR2.1 
.................... #bit    HLVDIP = IPR2.2 
.................... #bit    BCL1IP = IPR2.3 
.................... #bit    EEIP = IPR2.4 
.................... #bit    C2IP = IPR2.5 
.................... #bit    C1IP = IPR2.6 
.................... #bit    OSCFIP = IPR2.7 
.................... #byte PIR2 = 0xFA1 
.................... #bit    CCP2IF = PIR2.0 
.................... #bit    TMR3IF = PIR2.1 
.................... #bit    HLVDIF = PIR2.2 
.................... #bit    BCL1IF = PIR2.3 
.................... #bit    EEIF = PIR2.4 
.................... #bit    C2IF = PIR2.5 
.................... #bit    C1IF = PIR2.6 
.................... #bit    OSCFIF = PIR2.7 
.................... #byte PIE2 = 0xFA0 
.................... #bit    CCP2IE = PIE2.0 
.................... #bit    TMR3IE = PIE2.1 
.................... #bit    HLVDIE = PIE2.2 
.................... #bit    BCL1IE = PIE2.3 
.................... #bit    EEIE = PIE2.4 
.................... #bit    C2IE = PIE2.5 
.................... #bit    C1IE = PIE2.6 
.................... #bit    OSCFIE = PIE2.7 
.................... #byte IPR1 = 0xF9F 
.................... #bit    TMR1IP = IPR1.0 
.................... #bit    TMR2IP = IPR1.1 
.................... #bit    CCP1IP = IPR1.2 
.................... #bit    SSP1IP = IPR1.3 
.................... #bit    TX1IP = IPR1.4 
.................... #bit    RC1IP = IPR1.5 
.................... #bit    ADIP = IPR1.6 
.................... #byte PIR1 = 0xF9E 
.................... #bit    TMR1IF = PIR1.0 
.................... #bit    TMR2IF = PIR1.1 
.................... #bit    CCP1IF = PIR1.2 
.................... #bit    SSP1IF = PIR1.3 
.................... #bit    TX1IF = PIR1.4 
.................... #bit    RC1IF = PIR1.5 
.................... #bit    ADIF = PIR1.6 
.................... #byte PIE1 = 0xF9D 
.................... #bit    TMR1IE = PIE1.0 
.................... #bit    TMR2IE = PIE1.1 
.................... #bit    CCP1IE = PIE1.2 
.................... #bit    SSP1IE = PIE1.3 
.................... #bit    TX1IE = PIE1.4 
.................... #bit    RC1IE = PIE1.5 
.................... #bit    ADIE = PIE1.6 
.................... #byte HLVDCON = 0xF9C 
.................... #bit    HLVDL0 = HLVDCON.0 
.................... #bit    HLVDL1 = HLVDCON.1 
.................... #bit    HLVDL2 = HLVDCON.2 
.................... #bit    HLVDL3 = HLVDCON.3 
.................... #bit    HLVDEN = HLVDCON.4 
.................... #bit    IRVST = HLVDCON.5 
.................... #bit    BGVST = HLVDCON.6 
.................... #bit    VDIRMAG = HLVDCON.7 
.................... #byte OSCTUNE = 0xF9B 
.................... #bit    TUN0 = OSCTUNE.0 
.................... #bit    TUN1 = OSCTUNE.1 
.................... #bit    TUN2 = OSCTUNE.2 
.................... #bit    TUN3 = OSCTUNE.3 
.................... #bit    TUN4 = OSCTUNE.4 
.................... #bit    TUN5 = OSCTUNE.5 
.................... #bit    PLLEN = OSCTUNE.6 
.................... #bit    INTSRC = OSCTUNE.7 
.................... #byte TRISE = 0xF96 
.................... #bit    TRISE0 = TRISE.0 
.................... #bit    TRISE1 = TRISE.1 
.................... #bit    TRISE2 = TRISE.2 
.................... #bit    WPUE3 = TRISE.7 
.................... #byte TRISD = 0xF95 
.................... #byte TRISC = 0xF94 
.................... #byte TRISB = 0xF93 
.................... #byte TRISA = 0xF92 
.................... #byte LATE = 0xF8D 
.................... #byte LATD = 0xF8C 
.................... #byte LATC = 0xF8B 
.................... #byte LATB = 0xF8A 
.................... #byte LATA = 0xF89 
.................... #byte PORTE = 0xF84 
.................... #byte PORTD = 0xF83 
.................... #byte PORTC = 0xF82 
.................... #byte PORTB = 0xF81 
.................... #byte PORTA = 0xF80 
.................... #byte IPR5 = 0xF7F 
.................... #bit    TMR4IP = IPR5.0 
.................... #bit    TMR5IP = IPR5.1 
.................... #bit    TMR6IP = IPR5.2 
.................... #byte PIR5 = 0xF7E 
.................... #bit    TMR4IF = PIR5.0 
.................... #bit    TMR5IF = PIR5.1 
.................... #bit    TMR6IF = PIR5.2 
.................... #byte PIE5 = 0xF7D 
.................... #bit    TMR4IE = PIE5.0 
.................... #bit    TMR5IE = PIE5.1 
.................... #bit    TMR6IE = PIE5.2 
.................... #byte IPR4 = 0xF7C 
.................... #bit    CCP3IP = IPR4.0 
.................... #bit    CCP4IP = IPR4.1 
.................... #bit    CCP5IP = IPR4.2 
.................... #byte PIR4 = 0xF7B 
.................... #bit    CCP3IF = PIR4.0 
.................... #bit    CCP4IF = PIR4.1 
.................... #bit    CCP5IF = PIR4.2 
.................... #byte PIE4 = 0xF7A 
.................... #bit    CCP3IE = PIE4.0 
.................... #bit    CCP4IE = PIE4.1 
.................... #bit    CCP5IE = PIE4.2 
.................... #byte CM1CON0 = 0xF79 
.................... #bit    C1CH0 = CM1CON0.0 
.................... #bit    C1CH1 = CM1CON0.1 
.................... #bit    C1R = CM1CON0.2 
.................... #bit    C1SP = CM1CON0.3 
.................... #bit    C1POL = CM1CON0.4 
.................... #bit    C1OE = CM1CON0.5 
.................... //#bit    C1OUT = CM1CON0.6 
.................... #bit    C1ON = CM1CON0.7 
.................... #byte CM2CON0 = 0xF78 
.................... #bit    C2CH0 = CM2CON0.0 
.................... #bit    C2CH1 = CM2CON0.1 
.................... #bit    C2R = CM2CON0.2 
.................... #bit    C2SP = CM2CON0.3 
.................... #bit    C2POL = CM2CON0.4 
.................... #bit    C2OE = CM2CON0.5 
.................... //#bit    C2OUT = CM2CON0.6 
.................... #bit    C2ON = CM2CON0.7 
.................... #byte CM2CON1 = 0xF77 
.................... #bit    C2SYNC = CM2CON1.0 
.................... #bit    C1SYNC = CM2CON1.1 
.................... #bit    C2HYS = CM2CON1.2 
.................... #bit    C1HYS = CM2CON1.3 
.................... #bit    C2RSEL = CM2CON1.4 
.................... #bit    C1RSEL = CM2CON1.5 
.................... #bit    MC2OUT = CM2CON1.6 
.................... #bit    MC1OUT = CM2CON1.7 
.................... #byte SPBRGH2 = 0xF76 
.................... #byte SPBRG2 = 0xF75 
.................... #byte RCREG2 = 0xF74 
.................... #byte TXREG2 = 0xF73 
.................... #byte TXSTA2 = 0xF72 
.................... #bit    U2TX9D = TXSTA2.0 
.................... #bit    U2TRMT = TXSTA2.1 
.................... #bit    U2BRGH = TXSTA2.2 
.................... #bit    U2SENDB = TXSTA2.3 
.................... #bit    U2SYNC = TXSTA2.4 
.................... #bit    U2TXEN = TXSTA2.5 
.................... #bit    U2TX9 = TXSTA2.6 
.................... #bit    U2CSRC = TXSTA2.7 
.................... #byte RCSTA2 = 0xF71 
.................... #bit    U1RX9D = RCSTA2.0 
.................... #bit    U1OERR = RCSTA2.1 
.................... #bit    U1FERR = RCSTA2.2 
.................... #bit    U1ADDEN = RCSTA2.3 
.................... #bit    U1CREN = RCSTA2.4 
.................... #bit    U1SREN = RCSTA2.5 
.................... #bit    U1RX9 = RCSTA2.6 
.................... #bit    U1SPEN = RCSTA2.7 
.................... #byte BAUDCON2 = 0xF70 
.................... #bit    U1ABDEN = BAUDCON2.0 
.................... #bit    U1WUE = BAUDCON2.1 
.................... #bit    U1BRG16 = BAUDCON2.3 
.................... #bit    U1CKTXP = BAUDCON2.4 
.................... #bit    U1DTRXP = BAUDCON2.5 
.................... #bit    U1RCIDL = BAUDCON2.6 
.................... #bit    U1ABDOVF = BAUDCON2.7 
.................... #byte SSP2BUF = 0xF6F 
.................... #byte SSP2ADD = 0xF6E 
.................... #byte SSP2STAT = 0xF6D 
.................... #bit    SP2BF = SSP2STAT.0 
.................... #bit    SP2UA = SSP2STAT.1 
.................... #bit    SP2R = SSP2STAT.2 
.................... #bit    SP2S = SSP2STAT.3 
.................... #bit    SP2P = SSP2STAT.4 
.................... #bit    SP2D = SSP2STAT.5 
.................... #bit    SP2CKE = SSP2STAT.6 
.................... #bit    SP2SMP = SSP2STAT.7 
.................... #byte SSP2CON1 = 0xF6C 
.................... #bit    SP2SSPM0 = SSP2CON1.0 
.................... #bit    SP2SSPM1 = SSP2CON1.1 
.................... #bit    SP2SSPM2 = SSP2CON1.2 
.................... #bit    SP2SSPM3 = SSP2CON1.3 
.................... #bit    SP2CKP = SSP2CON1.4 
.................... #bit    SP2SSPEN = SSP2CON1.5 
.................... #bit    SP2SSPOV = SSP2CON1.6 
.................... #bit    SP2WCOL = SSP2CON1.7 
.................... #byte SSP2CON2 = 0xF6B 
.................... #bit    SP2SEN = SSP2CON2.0 
.................... #bit    SP2RSEN = SSP2CON2.1 
.................... #bit    SP2PEN = SSP2CON2.2 
.................... #bit    SP2RCEN = SSP2CON2.3 
.................... #bit    SP2ACKEN = SSP2CON2.4 
.................... #bit    SP2ACKDT = SSP2CON2.5 
.................... #bit    SP2ACKSTAT = SSP2CON2.6 
.................... #bit    SP2GCEN = SSP2CON2.7 
.................... #byte SSP2MSK = 0xF6A 
.................... #byte SSP2CON3 = 0xF69 
.................... #bit    SP2DHEN = SSP2CON3.0 
.................... #bit    SP2AHEN = SSP2CON3.1 
.................... #bit    SP2SBCDE = SSP2CON3.2 
.................... #bit    SP2SDAHT = SSP2CON3.3 
.................... #bit    SP2BOEN = SSP2CON3.4 
.................... #bit    SP2SCIE = SSP2CON3.5 
.................... #bit    SP2PCIE = SSP2CON3.6 
.................... #bit    SP2ACKTIM = SSP2CON3.7 
.................... #word CCPR2 = 0xF68 
.................... #byte CCP2CON = 0xF66 
.................... #bit    CCP2M0 = CCP2CON.0 
.................... #bit    CCP2M1 = CCP2CON.1 
.................... #bit    CCP2M2 = CCP2CON.2 
.................... #bit    CCP2M3 = CCP2CON.3 
.................... #bit    CCP2DC2B0 = CCP2CON.4 
.................... #bit    CCP2DC2B1 = CCP2CON.5 
.................... #bit    CCP2P2M0 = CCP2CON.6 
.................... #bit    CCP2P2M1 = CCP2CON.7 
.................... #byte PWM2CON = 0xF65 
.................... #bit    P2DC0 = PWM2CON.0 
.................... #bit    P2DC1 = PWM2CON.1 
.................... #bit    P2DC2 = PWM2CON.2 
.................... #bit    P2DC3 = PWM2CON.3 
.................... #bit    P2DC4 = PWM2CON.4 
.................... #bit    P2DC5 = PWM2CON.5 
.................... #bit    P2DC6 = PWM2CON.6 
.................... #bit    P2RSEN = PWM2CON.7 
.................... #byte ECCP2AS = 0xF64 
.................... #bit    P2SSBD0 = ECCP2AS.0 
.................... #bit    P2SSBD1 = ECCP2AS.1 
.................... #bit    P2SSAC0 = ECCP2AS.2 
.................... #bit    P2SSAC1 = ECCP2AS.3 
.................... #bit    CCP2AS0 = ECCP2AS.4 
.................... #bit    CCP2AS1 = ECCP2AS.5 
.................... #bit    CCP2AS2 = ECCP2AS.6 
.................... #bit    CCP2ASE = ECCP2AS.7 
.................... #byte PSTR2CON = 0xF63 
.................... #bit    STR2A = PSTR2CON.0 
.................... #bit    STR2B = PSTR2CON.1 
.................... #bit    STR2C = PSTR2CON.2 
.................... #bit    STR2D = PSTR2CON.3 
.................... #bit    STR2SYNC = PSTR2CON.4 
.................... #byte IOCB = 0xF62 
.................... #bit    IOCB4 = IOCB.4 
.................... #bit    IOCB5 = IOCB.5 
.................... #bit    IOCB6 = IOCB.6 
.................... #bit    IOCB7 = IOCB.7 
.................... #byte WPUB = 0xF61 
.................... #byte SLRCON = 0xF60 
.................... #bit    SLRA = SLRCON.0 
.................... #bit    SLRB = SLRCON.1 
.................... #bit    SLRC = SLRCON.2 
.................... #bit    SLRD = SLRCON.3 
.................... #bit    SLRE = SLRCON.4 
.................... #word CCPR3 = 0xF5F 
.................... #byte CCP3CON = 0xF5D 
.................... #bit    CCP3M0 = CCP3CON.0 
.................... #bit    CCP3M1 = CCP3CON.1 
.................... #bit    CCP3M2 = CCP3CON.2 
.................... #bit    CCP3M3 = CCP3CON.3 
.................... #bit    CCP3DC3B0 = CCP3CON.4 
.................... #bit    CCP3DC3B1 = CCP3CON.5 
.................... #bit    CCP3P3M0 = CCP3CON.6 
.................... #bit    CCP3P3M1 = CCP3CON.7 
.................... #byte PWM3CON = 0xF5C 
.................... #bit    P3DC0 = PWM3CON.0 
.................... #bit    P3DC1 = PWM3CON.1 
.................... #bit    P3DC2 = PWM3CON.2 
.................... #bit    P3DC3 = PWM3CON.3 
.................... #bit    P3DC4 = PWM3CON.4 
.................... #bit    P3DC5 = PWM3CON.5 
.................... #bit    P3DC6 = PWM3CON.6 
.................... #bit    P3RSEN = PWM3CON.7 
.................... #byte ECCP3AS = 0xF5B 
.................... #bit    P3SSBD0 = ECCP3AS.0 
.................... #bit    P3SSBD1 = ECCP3AS.1 
.................... #bit    P3SSAC0 = ECCP3AS.2 
.................... #bit    P3SSAC1 = ECCP3AS.3 
.................... #bit    CCP3AS0 = ECCP3AS.4 
.................... #bit    CCP3AS1 = ECCP3AS.5 
.................... #bit    CCP3AS2 = ECCP3AS.6 
.................... #bit    CCP3ASE = ECCP3AS.7 
.................... #byte PSTR3CON = 0xF5A 
.................... #bit    STR3A = PSTR3CON.0 
.................... #bit    STR3B = PSTR3CON.1 
.................... #bit    STR3C = PSTR3CON.2 
.................... #bit    STR3D = PSTR3CON.3 
.................... #bit    STR3SYNC = PSTR3CON.4 
.................... #word CCPR4 = 0xF59 
.................... #byte CCP4CON = 0xF57 
.................... #bit    CCP4M0 = CCP4CON.0 
.................... #bit    CCP4M1 = CCP4CON.1 
.................... #bit    CCP4M2 = CCP4CON.2 
.................... #bit    CCP4M3 = CCP4CON.3 
.................... #bit    CCP4DC4B0 = CCP4CON.4 
.................... #bit    CCP4DC4B1 = CCP4CON.5 
.................... #word CCPR5 = 0xF56 
.................... #byte CCP5CON = 0xF54 
.................... #bit    CCP5M0 = CCP5CON.0 
.................... #bit    CCP5M1 = CCP5CON.1 
.................... #bit    CCP5M2 = CCP5CON.2 
.................... #bit    CCP5M3 = CCP5CON.3 
.................... #bit    CCP5DC5B0 = CCP5CON.4 
.................... #bit    CCP5DC5B1 = CCP5CON.5 
.................... #byte TMR4 = 0xF53 
.................... #byte PR4 = 0xF52 
.................... #byte T4CON = 0xF51 
.................... #bit    T4CKPS0 = T4CON.0 
.................... #bit    T4CKPS1 = T4CON.1 
.................... #bit    TMR4ON = T4CON.2 
.................... #bit    T4OUTPS0 = T4CON.3 
.................... #bit    T4OUTPS1 = T4CON.4 
.................... #bit    T4OUTPS2 = T4CON.5 
.................... #bit    T4OUTPS3 = T4CON.6 
.................... #word TMR5 = 0xF50 
.................... #byte T5CON = 0xF4E 
.................... #bit    TMR5ON = T5CON.0 
.................... #bit    T5RD16 = T5CON.1 
.................... #bit    T5SYNC = T5CON.2 
.................... #bit    T5SOSCEN = T5CON.3 
.................... #bit    T5CKPS0 = T5CON.4 
.................... #bit    T5CKPS1 = T5CON.5 
.................... #bit    TMR5CS0 = T5CON.6 
.................... #bit    TMR5CS1 = T5CON.7 
.................... #byte T5GCON = 0xF4D 
.................... #bit    T5GSS0 = T5GCON.0 
.................... #bit    T5GSS1 = T5GCON.1 
.................... #bit    T5GVAL = T5GCON.2 
.................... #bit    T5GGO = T5GCON.3 
.................... #bit    T5GSPM = T5GCON.4 
.................... #bit    T5GTM = T5GCON.5 
.................... #bit    T5GPOL = T5GCON.6 
.................... #bit    TMR5GE = T5GCON.7 
.................... #byte TMR6 = 0xF4C 
.................... #byte PR6 = 0xF4B 
.................... #byte T6CON = 0xF4A 
.................... #bit    T6CKPS0 = T6CON.0 
.................... #bit    T6CKPS1 = T6CON.1 
.................... #bit    TMR6ON = T6CON.2 
.................... #bit    T6OUTPS0 = T6CON.3 
.................... #bit    T6OUTPS1 = T6CON.4 
.................... #bit    T6OUTPS2 = T6CON.5 
.................... #bit    T6OUTPS3 = T6CON.6 
.................... #byte CCPTMRS0 = 0xF49 
.................... #bit    C1TSEL0 = CCPTMRS0.0 
.................... #bit    C1TSEL1 = CCPTMRS0.1 
.................... #bit    C2TSEL0 = CCPTMRS0.3 
.................... #bit    C2TSEL1 = CCPTMRS0.4 
.................... #bit    C3TSEL0 = CCPTMRS0.6 
.................... #bit    C3TSEL1 = CCPTMRS0.7 
.................... #byte CCPTMRS1 = 0xF48 
.................... #bit    C4TSEL0 = CCPTMRS1.0 
.................... #bit    C4TSEL1 = CCPTMRS1.1 
.................... #bit    C5TSEL0 = CCPTMRS1.2 
.................... #bit    C5TSEL1 = CCPTMRS1.3 
.................... #byte SRCON0 = 0xF47 
.................... #bit    SRPR = SRCON0.0 
.................... #bit    SRPS = SRCON0.1 
.................... #bit    SRNQEN = SRCON0.2 
.................... #bit    SRQEN = SRCON0.3 
.................... #bit    SRCLK0 = SRCON0.4 
.................... #bit    SRCLK1 = SRCON0.5 
.................... #bit    SRCLK2 = SRCON0.6 
.................... #bit    SRLEN = SRCON0.7 
.................... #byte SRCON1 = 0xF46 
.................... #bit    SRRC1E = SRCON1.0 
.................... #bit    SRRC2E = SRCON1.1 
.................... #bit    SRRCKE = SRCON1.2 
.................... #bit    SRRPE = SRCON1.3 
.................... #bit    SRSC1E = SRCON1.4 
.................... #bit    SRSC2E = SRCON1.5 
.................... #bit    SRSCKE = SRCON1.6 
.................... #bit    SRSPE = SRCON1.7 
.................... #word CTMUCON = 0xF45 
.................... #byte CTMUICON = 0xF43 
.................... #bit    IRNG0 = CTMUICON.0 
.................... #bit    IRNG1 = CTMUICON.1 
.................... #bit    ITRIM0 = CTMUICON.2 
.................... #bit    ITRIM1 = CTMUICON.3 
.................... #bit    ITRIM2 = CTMUICON.4 
.................... #bit    ITRIM3 = CTMUICON.5 
.................... #bit    ITRIM4 = CTMUICON.6 
.................... #bit    ITRIM5 = CTMUICON.7 
.................... #byte VREFCON0 = 0xF42 
.................... #bit    FVRS0 = VREFCON0.4 
.................... #bit    FVRS1 = VREFCON0.5 
.................... #bit    FVRST = VREFCON0.6 
.................... #bit    FVREN = VREFCON0.7 
.................... #byte VREFCON1 = 0xF41 
.................... #bit    DACNSS = VREFCON1.0 
.................... #bit    DACPSS0 = VREFCON1.2 
.................... #bit    DACPSS1 = VREFCON1.3 
.................... #bit    DACOE = VREFCON1.5 
.................... #bit    DACLPS = VREFCON1.6 
.................... #bit    DACEN = VREFCON1.7 
.................... #byte VREFCON2 = 0xF40 
.................... #byte PMD0 = 0xF3F 
.................... #bit    TMR1MD = PMD0.0 
.................... #bit    TMR2MD = PMD0.1 
.................... #bit    TMR3MD = PMD0.2 
.................... #bit    TMR4MD = PMD0.3 
.................... #bit    TMR5MD = PMD0.4 
.................... #bit    TMR6MD = PMD0.5 
.................... #bit    UART1MD = PMD0.6 
.................... #bit    UART2MD = PMD0.7 
.................... #byte PMD1 = 0xF3E 
.................... #bit    CCP1MD = PMD1.0 
.................... #bit    CCP2MD = PMD1.1 
.................... #bit    CCP3MD = PMD1.2 
.................... #bit    CCP4MD = PMD1.3 
.................... #bit    CCP5MD = PMD1.4 
.................... #bit    MSSP1MD = PMD1.6 
.................... #bit    MSSP2MD = PMD1.7 
.................... #byte PMD2 = 0xF3D 
.................... #bit    ADCMD = PMD2.0 
.................... #bit    CMP1MD = PMD2.1 
.................... #bit    CMP2MD = PMD2.2 
.................... #bit    CTMUMD = PMD2.3 
.................... #byte ANSELE = 0xF3C 
.................... #byte ANSELD = 0xF3B 
.................... #byte ANSELC = 0xF3A 
.................... #bit    ANSC2 = ANSELC.2 
.................... #bit    ANSC3 = ANSELC.3 
.................... #bit    ANSC4 = ANSELC.4 
.................... #bit    ANSC5 = ANSELC.5 
.................... #bit    ANSC6 = ANSELC.6 
.................... #bit    ANSC7 = ANSELC.7 
.................... #byte ANSELB = 0xF39 
.................... #byte ANSELA = 0xF38 
.................... #bit    ANSA0 = ANSELA.0 
.................... #bit    ANSA1 = ANSELA.1 
.................... #bit    ANSA2 = ANSELA.2 
.................... #bit    ANSA3 = ANSELA.3 
.................... #bit    ANSA5 = ANSELA.5 
....................  
....................  
.................... #define VERSION "BA1533TX V1.0" 
.................... #define VERSION_V "V1.0" 
....................  
.................... //--------- frequency constants ----------------------------------------------- 
.................... #define FREQ_P_MULT            64L 
.................... #define FREQ_BASE         2575000L       // in KHz 
.................... #define FREQ_STEP              10L       // in KHz 
.................... #define FREQ_OSC            10000L       // in KHz 
.................... #define FREQ_MUL              100L 
.................... #define FREQ_MOD              ((FREQ_OSC / FREQ_STEP)) 
....................  
.................... #define FRQ_LO_BOT 5150 
.................... #define FRQ_LO_TOP 5250 
.................... #define FRQ_HI_BOT 5675 
.................... #define FRQ_HI_TOP 5685 
....................  
.................... //========== power ============================================================ 
.................... UINT  power_level, power_control; 
....................  
.................... #define A2D_POWER 5		//FFWR 
.................... #define A2D_PREV  4 
.................... #define A2D_TEMP  25 
.................... //#define A2D_VGMON 7 
.................... //#define FFWR	  5 
.................... #define A2D_FFWR2 6 
.................... #define A2D_Vdd   0 
.................... #define A2D_28v   9 
....................  
.................... #define DAC_POS_VOLT 0 
.................... #define DAC_NEG_VOLT 1 
....................  
.................... #define FREQ_LOW_THRESH   22570 
.................... #define FREQ_HIGH_THRESH  23290 
....................  
.................... #define DEADBAND 6 
....................  
.................... // UINT  manual_pos = 0xFFFF; 
....................  
.................... //========== timer ============================================================ 
.................... UCHAR  TMR_1mS_Flags; 
.................... UCHAR  TMR_1mS_Count; 
.................... UCHAR  TMR_1mS_Cnt; 
.................... UCHAR  TMR_10mS_Count; 
.................... UCHAR  TMR_10mS_Flags; 
.................... UCHAR  TMR_10mS_Cnt; 
.................... UCHAR  TMR_100mS_Flags; 
.................... UCHAR  TMR_100mS_Cnt; 
.................... UCHAR  TMR_1sec_Flags; 
.................... UCHAR  TMR_1sec_cnt; 
....................  
.................... #bit TMR_1MS_KEYPAD     = TMR_1mS_Flags.0 
.................... #bit TMR_1MS_DELAY      = TMR_1mS_Flags.1 
....................  
.................... #bit TMR_100mS_BLINK    = TMR_100mS_Flags.0 
.................... #bit TMR_100MS_COMM_TO  = TMR_100mS_Flags.1 
.................... #bit TMR_100MS_LEDS     = TMR_100mS_Flags.2 
.................... #bit TMR_100MS_POWER    = TMR_100mS_Flags.3 
....................  
.................... #bit TMR_1sec_DISP_STAT =  TMR_1sec_Flags.0 
.................... #bit TMR_1sec_RSSI      =  TMR_1sec_Flags.1 
.................... #bit TMR_1Sec_TEMP      =  TMR_1sec_Flags.2 
.................... #bit TMR_1Sec_BIT_EN    =  TMR_1sec_Flags.3 
....................  
.................... //============= I/O PIN assignments =========================================== 
....................  
.................... #define PLL1_LAT  PIN_C2 
.................... #define PLL1_CLK  PIN_C3 
.................... #define PLL1_DAT  PIN_D0 
.................... #define PLL1_LD   PIN_D1 
.................... #define PLL1_CE   PIN_C1 
....................  
.................... #define BIT_MODE_EN  PIN_C4  		// FPGA BIT_EN 
....................  
.................... //#define POWER_CTL PIN_C5		//PREAMP2_EN 
.................... //#define PA_ON     POWER_CTL 
....................  
.................... #define PREAMP_EN  PIN_D2		//PS = 1 ? 1 : 0 
.................... #define PREAMP2_EN PIN_C5		//PS = 1 ? 1 : 0 
.................... #define TX_RX_INIT PIN_D3		//PS = 1 ? 1 : 0 
....................  
.................... #define CPLD_RX	  PIN_D6 
.................... #define CPLD_TX	  PIN_D7 
....................  
.................... #define LED1      PIN_C0 
.................... #define LED2      PIN_B4 
....................  
.................... ////////////////#define HILO     PIN_D2   yehuda 
.................... //#define STANDBY  PIN_B0		//was D7 changed to B0 TXRX_MCU 
.................... #define TXRX_MCU   PIN_B0 
....................  
.................... #define MET_EN   PIN_B2 
.................... #define SENS_28V PIN_B3	//sAN9   connected to ADC 
....................  
.................... #define RREV     PIN_A5 // sAN4  connected to ADC 
.................... #define FFWR1    PIN_E1 // sAN6  connected to ADC 
.................... #define FFWR2    PIN_E0 // sAN5  connected to ADC 
.................... #define MCU_3P3	 PIN_A0	// sAN0	 connected to ADC 
....................  
.................... #define TMP      PIN_D5 // sAN25 temperature connected to ADC 
.................... //#define VG_MON   PIN_E2 // sAN7 
.................... #define RF_INDENT   PIN_E2 // sAN7 
....................  
.................... #define VGMON_THRESHOLD 650 // 2.1V 
....................  
.................... #define METER_OUTPUT1  100    // 1 
.................... #define METER_OUTPUT2  16   // 11 
.................... #define METER_OUTPUT3  98   // 111  
.................... #define METER_OUTPUT4  784  // 1111 
....................  
.................... UINT power_avg[4], pavgx = 0; 
....................  
.................... //========== COM1 variables =================================================== 
.................... #define COM1_RX_LEN 32 
....................  
.................... UCHAR COM1_rcnt; 
.................... UCHAR COM1_rxi; 
.................... UCHAR COM1_rxo; 
.................... UCHAR COM1_rbuf[COM1_RX_LEN]; 
....................  
.................... #define COMM_INIT       0 
.................... #define COMM_WAIT_DLR   1 
.................... #define COMM_WAIT_CR    2 
.................... #define COMM_DELAY      3 
....................  
.................... #define WAIT_ACK_TO 20 // 200mS wait for ack 
....................  
.................... UCHAR comm_state; 
.................... UCHAR comm_ridx; 
.................... UCHAR comm_buf[80]; 
.................... UINT  comm_timeout; 
....................  
....................  
.................... //========== COM2 variables =================================================== 
.................... #define COM2_RX_LEN 32 
....................  
.................... UCHAR COM2_rcnt; 
.................... UCHAR COM2_rxi; 
.................... UCHAR COM2_rxo; 
.................... UCHAR COM2_rbuf[COM2_RX_LEN]; 
....................  
.................... #define COMM2_INIT       0 
.................... #define COMM2_WAIT_DLR   1 
.................... #define COMM2_WAIT_CR    2 
.................... #define COMM2_DELAY      3 
....................  
.................... #define WAIT_ACK2_TO 20 // 200mS wait for ack 
....................  
.................... UCHAR comm2_state; 
.................... UCHAR comm2_ridx; 
.................... UCHAR comm2_buf[80]; 
.................... UINT  comm2_timeout; 
....................  
....................  
.................... //======= misc ================================================================ 
....................  
.................... //----------- setup ----------------------------------------------------------- 
.................... struct { 
....................        UCHAR power_amp; 
....................        UINT  frequency; 
....................        UINT  power_level; 
....................        UINT  negative_voltage[3]; 
....................        UINT  power_in[4]; 
....................        UINT  fwd_table[11][2]; 
....................        UINT  reverse; 
....................        UCHAR meter_backlight; 
....................        UINT  year; 
....................        UCHAR week; 
....................        UINT  unit_ID; 
.................... } setup; 
....................  
.................... UINT allow_write = 0; 
....................  
.................... //========== function prototypes ============================================== 
.................... void read_setup(void); 
.................... void write_setup(void); 
.................... void update_all(void); 
.................... //void meter1(void); 
.................... //void meter2(void); 
....................  
.................... //========== include source files ============================================= 
.................... #include "AD5312.c" 
....................  
.................... #define SW_SPI 
....................  
.................... #define DA2_CLK   PIN_A3 // AD5314 
.................... #define DA2_DAT   PIN_A4 
.................... #define DA2_SYN   PIN_A2 
.................... #define DA2_LAT   PIN_A1 
....................  
.................... void set_AD5312(int8 channel, int16 level) 
.................... { 
.................... 	output_low(DA2_SYN); 
*
0CAC:  BCF    F89.2
.................... 	 
.................... //	if (channel) 
.................... //    output_high(DA2_DAT);    // send to VOUTB 
.................... //	else 
.................... //    output_low(DA2_DAT);    // send to VOUTA 
.................... //channel is 4 bit wide  
.................... //bit 3 - address A1 
.................... //bit 2 - address A0 
.................... //bit 1 - if 1 normal operation, if 0 power down (PD) 
.................... //bit 0 - if 1 only address input regs updated no change in the content, if 0 all updated on complition of write 
.................... 	 
.................... 	#ifdef SW_SPI 
.................... 		if(channel & 0x08)			//send bit 15 - A1 
0CAE:  MOVLB  1
0CB0:  BTFSS  xDE.3
0CB2:  BRA    0CB8
.................... 		output_high(DA2_DAT); 
0CB4:  BSF    F89.4
0CB6:  BRA    0CBA
.................... 		else  
.................... 		output_low(DA2_DAT); 
0CB8:  BCF    F89.4
.................... 		output_high(DA2_CLK);   
0CBA:  BSF    F89.3
.................... 		delay_cycles(15); 
0CBC:  MOVLW  04
0CBE:  MOVWF  00
0CC0:  DECFSZ 00,F
0CC2:  BRA    0CC0
0CC4:  BRA    0CC6
.................... 		output_low(DA2_CLK); 
0CC6:  BCF    F89.3
.................... 		delay_cycles(15); 
0CC8:  MOVLW  04
0CCA:  MOVWF  00
0CCC:  DECFSZ 00,F
0CCE:  BRA    0CCC
0CD0:  BRA    0CD2
.................... 		 
.................... 		if(channel & 0x04)			//send bit 14 - A0 
0CD2:  BTFSS  xDE.2
0CD4:  BRA    0CDA
.................... 		output_high(DA2_DAT); 
0CD6:  BSF    F89.4
0CD8:  BRA    0CDC
.................... 		else  
.................... 		output_low(DA2_DAT); 
0CDA:  BCF    F89.4
.................... 		output_high(DA2_CLK); 
0CDC:  BSF    F89.3
.................... 		delay_cycles(15); 
0CDE:  MOVLW  04
0CE0:  MOVWF  00
0CE2:  DECFSZ 00,F
0CE4:  BRA    0CE2
0CE6:  BRA    0CE8
.................... 		output_low(DA2_CLK); 
0CE8:  BCF    F89.3
.................... 		delay_cycles(15); 
0CEA:  MOVLW  04
0CEC:  MOVWF  00
0CEE:  DECFSZ 00,F
0CF0:  BRA    0CEE
0CF2:  BRA    0CF4
.................... 		 
.................... 		if(channel & 0x02)			//send bit 13 - PD - if 1 normal operation, if 0 power down (PD) 
0CF4:  BTFSS  xDE.1
0CF6:  BRA    0CFC
.................... 		output_high(DA2_DAT); 
0CF8:  BSF    F89.4
0CFA:  BRA    0CFE
.................... 		else  
.................... 		output_low(DA2_DAT); 
0CFC:  BCF    F89.4
.................... 		output_high(DA2_CLK); 
0CFE:  BSF    F89.3
.................... 		delay_cycles(15); 
0D00:  MOVLW  04
0D02:  MOVWF  00
0D04:  DECFSZ 00,F
0D06:  BRA    0D04
0D08:  BRA    0D0A
.................... 		output_low(DA2_CLK); 
0D0A:  BCF    F89.3
.................... 		delay_cycles(15); 
0D0C:  MOVLW  04
0D0E:  MOVWF  00
0D10:  DECFSZ 00,F
0D12:  BRA    0D10
0D14:  BRA    0D16
.................... 		 
.................... 		if(channel & 0x01)			//send bit 12 - LDAC - if 1 only address input regs updated no change in the content, if 0 all updated on complition of write 
0D16:  BTFSS  xDE.0
0D18:  BRA    0D1E
.................... 		output_high(DA2_DAT); 
0D1A:  BSF    F89.4
0D1C:  BRA    0D20
.................... 		else  
.................... 		output_low(DA2_DAT); 
0D1E:  BCF    F89.4
.................... 		output_high(DA2_CLK); 
0D20:  BSF    F89.3
.................... 		delay_cycles(15); 
0D22:  MOVLW  04
0D24:  MOVWF  00
0D26:  DECFSZ 00,F
0D28:  BRA    0D26
0D2A:  BRA    0D2C
.................... 		output_low(DA2_CLK); 
0D2C:  BCF    F89.3
.................... 		delay_cycles(15); 
0D2E:  MOVLW  04
0D30:  MOVWF  00
0D32:  DECFSZ 00,F
0D34:  BRA    0D32
0D36:  BRA    0D38
.................... 		 
.................... 		 
.................... 		output_high(DA2_CLK);    	//send bit 11 DATA 
0D38:  BSF    F89.3
.................... 		if (level & 0x0200) 
0D3A:  ANDLW  00
0D3C:  MOVWF  00
0D3E:  MOVF   xE0,W
0D40:  ANDLW  02
0D42:  MOVWF  03
0D44:  MOVF   00,W
0D46:  IORWF  03,W
0D48:  BZ    0D4E
.................... 		output_high(DA2_DAT); 
0D4A:  BSF    F89.4
0D4C:  BRA    0D50
.................... 		else 
.................... 		output_low(DA2_DAT); 
0D4E:  BCF    F89.4
.................... 		delay_cycles(15); 
0D50:  MOVLW  04
0D52:  MOVWF  00
0D54:  DECFSZ 00,F
0D56:  BRA    0D54
0D58:  BRA    0D5A
.................... 		output_low(DA2_CLK); 
0D5A:  BCF    F89.3
.................... 		delay_cycles(15); 
0D5C:  MOVLW  04
0D5E:  MOVWF  00
0D60:  DECFSZ 00,F
0D62:  BRA    0D60
0D64:  BRA    0D66
.................... 		 
.................... 		output_high(DA2_CLK);  		//send bit 10 DATA 
0D66:  BSF    F89.3
.................... 		if (level & 0x0100) 
0D68:  ANDLW  00
0D6A:  MOVWF  00
0D6C:  MOVF   xE0,W
0D6E:  ANDLW  01
0D70:  MOVWF  03
0D72:  MOVF   00,W
0D74:  IORWF  03,W
0D76:  BZ    0D7C
.................... 		output_high(DA2_DAT); 
0D78:  BSF    F89.4
0D7A:  BRA    0D7E
.................... 		else 
.................... 		output_low(DA2_DAT); 
0D7C:  BCF    F89.4
.................... 		output_low(DA2_CLK); 
0D7E:  BCF    F89.3
.................... 		 
.................... 		output_high(DA2_CLK);		//send bit 9 DATA 
0D80:  BSF    F89.3
.................... 		if (level & 0x0080) 
0D82:  MOVF   xDF,W
0D84:  ANDLW  80
0D86:  MOVWF  00
0D88:  CLRF   03
0D8A:  MOVF   00,W
0D8C:  IORWF  03,W
0D8E:  BZ    0D94
.................... 		output_high(DA2_DAT); 
0D90:  BSF    F89.4
0D92:  BRA    0D96
.................... 		else 
.................... 		output_low(DA2_DAT); 
0D94:  BCF    F89.4
.................... 		delay_cycles(15); 
0D96:  MOVLW  04
0D98:  MOVWF  00
0D9A:  DECFSZ 00,F
0D9C:  BRA    0D9A
0D9E:  BRA    0DA0
.................... 		output_low(DA2_CLK); 
0DA0:  BCF    F89.3
.................... 		delay_cycles(15); 
0DA2:  MOVLW  04
0DA4:  MOVWF  00
0DA6:  DECFSZ 00,F
0DA8:  BRA    0DA6
0DAA:  BRA    0DAC
.................... 		 
.................... 		output_high(DA2_CLK);		//send bit 8 DATA 
0DAC:  BSF    F89.3
.................... 		if (level & 0x0040) 
0DAE:  MOVF   xDF,W
0DB0:  ANDLW  40
0DB2:  MOVWF  00
0DB4:  CLRF   03
0DB6:  MOVF   00,W
0DB8:  IORWF  03,W
0DBA:  BZ    0DC0
.................... 		output_high(DA2_DAT); 
0DBC:  BSF    F89.4
0DBE:  BRA    0DC2
.................... 		else 
.................... 		output_low(DA2_DAT); 
0DC0:  BCF    F89.4
.................... 		delay_cycles(15); 
0DC2:  MOVLW  04
0DC4:  MOVWF  00
0DC6:  DECFSZ 00,F
0DC8:  BRA    0DC6
0DCA:  BRA    0DCC
.................... 		output_low(DA2_CLK); 
0DCC:  BCF    F89.3
.................... 		delay_cycles(15); 
0DCE:  MOVLW  04
0DD0:  MOVWF  00
0DD2:  DECFSZ 00,F
0DD4:  BRA    0DD2
0DD6:  BRA    0DD8
.................... 		 
.................... 		output_high(DA2_CLK);		//send bit 7 DATA 
0DD8:  BSF    F89.3
.................... 		if (level & 0x0020) 
0DDA:  MOVF   xDF,W
0DDC:  ANDLW  20
0DDE:  MOVWF  00
0DE0:  CLRF   03
0DE2:  MOVF   00,W
0DE4:  IORWF  03,W
0DE6:  BZ    0DEC
.................... 		output_high(DA2_DAT); 
0DE8:  BSF    F89.4
0DEA:  BRA    0DEE
.................... 		else 
.................... 		output_low(DA2_DAT); 
0DEC:  BCF    F89.4
.................... 		output_low(DA2_CLK); 
0DEE:  BCF    F89.3
.................... 		 
.................... 		output_high(DA2_CLK);		//send bit 6 DATA 
0DF0:  BSF    F89.3
.................... 		if (level & 0x0010) 
0DF2:  MOVF   xDF,W
0DF4:  ANDLW  10
0DF6:  MOVWF  00
0DF8:  CLRF   03
0DFA:  MOVF   00,W
0DFC:  IORWF  03,W
0DFE:  BZ    0E04
.................... 		output_high(DA2_DAT); 
0E00:  BSF    F89.4
0E02:  BRA    0E06
.................... 		else 
.................... 		output_low(DA2_DAT); 
0E04:  BCF    F89.4
.................... 		delay_cycles(15); 
0E06:  MOVLW  04
0E08:  MOVWF  00
0E0A:  DECFSZ 00,F
0E0C:  BRA    0E0A
0E0E:  BRA    0E10
.................... 		output_low(DA2_CLK); 
0E10:  BCF    F89.3
.................... 		delay_cycles(15); 
0E12:  MOVLW  04
0E14:  MOVWF  00
0E16:  DECFSZ 00,F
0E18:  BRA    0E16
0E1A:  BRA    0E1C
.................... 		 
.................... 		output_high(DA2_CLK);		//send bit 5 DATA 
0E1C:  BSF    F89.3
.................... 		if (level & 0x0008) 
0E1E:  MOVF   xDF,W
0E20:  ANDLW  08
0E22:  MOVWF  00
0E24:  CLRF   03
0E26:  MOVF   00,W
0E28:  IORWF  03,W
0E2A:  BZ    0E30
.................... 		output_high(DA2_DAT); 
0E2C:  BSF    F89.4
0E2E:  BRA    0E32
.................... 		else 
.................... 		output_low(DA2_DAT); 
0E30:  BCF    F89.4
.................... 		output_low(DA2_CLK); 
0E32:  BCF    F89.3
.................... 		 
.................... 		output_high(DA2_CLK);		//send bit 4 DATA 
0E34:  BSF    F89.3
.................... 		if (level & 0x0004) 
0E36:  MOVF   xDF,W
0E38:  ANDLW  04
0E3A:  MOVWF  00
0E3C:  CLRF   03
0E3E:  MOVF   00,W
0E40:  IORWF  03,W
0E42:  BZ    0E48
.................... 		output_high(DA2_DAT); 
0E44:  BSF    F89.4
0E46:  BRA    0E4A
.................... 		else 
.................... 		output_low(DA2_DAT); 
0E48:  BCF    F89.4
.................... 		delay_cycles(15); 
0E4A:  MOVLW  04
0E4C:  MOVWF  00
0E4E:  DECFSZ 00,F
0E50:  BRA    0E4E
0E52:  BRA    0E54
.................... 		output_low(DA2_CLK); 
0E54:  BCF    F89.3
.................... 		delay_cycles(15); 
0E56:  MOVLW  04
0E58:  MOVWF  00
0E5A:  DECFSZ 00,F
0E5C:  BRA    0E5A
0E5E:  BRA    0E60
.................... 		 
.................... 		output_high(DA2_CLK);		//send bit 3 DATA 
0E60:  BSF    F89.3
.................... 		if (level & 0x0002) 
0E62:  MOVF   xDF,W
0E64:  ANDLW  02
0E66:  MOVWF  00
0E68:  CLRF   03
0E6A:  MOVF   00,W
0E6C:  IORWF  03,W
0E6E:  BZ    0E74
.................... 		output_high(DA2_DAT); 
0E70:  BSF    F89.4
0E72:  BRA    0E76
.................... 		else 
.................... 		output_low(DA2_DAT); 
0E74:  BCF    F89.4
.................... 		output_low(DA2_CLK); 
0E76:  BCF    F89.3
.................... 		 
.................... 		output_high(DA2_CLK);		//send bit 2 DATA 
0E78:  BSF    F89.3
.................... 		if (level & 0x0001) 
0E7A:  MOVF   xDF,W
0E7C:  ANDLW  01
0E7E:  MOVWF  00
0E80:  CLRF   03
0E82:  MOVF   00,W
0E84:  IORWF  03,W
0E86:  BZ    0E8C
.................... 		output_high(DA2_DAT); 
0E88:  BSF    F89.4
0E8A:  BRA    0E8E
.................... 		else 
.................... 		output_low(DA2_DAT); 
0E8C:  BCF    F89.4
.................... 		delay_cycles(15); 
0E8E:  MOVLW  04
0E90:  MOVWF  00
0E92:  DECFSZ 00,F
0E94:  BRA    0E92
0E96:  BRA    0E98
.................... 		output_low(DA2_CLK); 
0E98:  BCF    F89.3
.................... 		delay_cycles(15); 
0E9A:  MOVLW  04
0E9C:  MOVWF  00
0E9E:  DECFSZ 00,F
0EA0:  BRA    0E9E
0EA2:  BRA    0EA4
.................... 		 
.................... 		 
.................... 		output_high(DA2_CLK);		//send bit 1 X dont care 
0EA4:  BSF    F89.3
.................... 		delay_cycles(15); 
0EA6:  MOVLW  04
0EA8:  MOVWF  00
0EAA:  DECFSZ 00,F
0EAC:  BRA    0EAA
0EAE:  BRA    0EB0
.................... 		output_low(DA2_CLK); 
0EB0:  BCF    F89.3
.................... 		 
.................... 		output_high(DA2_CLK);		//send bit 0 X dont care 
0EB2:  BSF    F89.3
.................... 		delay_cycles(15); 
0EB4:  MOVLW  04
0EB6:  MOVWF  00
0EB8:  DECFSZ 00,F
0EBA:  BRA    0EB8
0EBC:  BRA    0EBE
.................... 		delay_cycles(15); 
0EBE:  MOVLW  04
0EC0:  MOVWF  00
0EC2:  DECFSZ 00,F
0EC4:  BRA    0EC2
0EC6:  BRA    0EC8
.................... 		output_low(DA2_CLK); 
0EC8:  BCF    F89.3
.................... 		delay_cycles(15); 
0ECA:  MOVLW  04
0ECC:  MOVWF  00
0ECE:  DECFSZ 00,F
0ED0:  BRA    0ECE
0ED2:  BRA    0ED4
.................... 		#else						//this else is for #ifdef SW_SPI above   
.................... 		level = (level << 2) | 0x8000; 
.................... 		SPI2BUF = (AD5314,make8(level,1)); 
.................... 		delay_cycles(15); 
.................... 		SPI2BUF = (AD5314,make8(level,0)); 
.................... 		delay_cycles(15); 
.................... 	#endif 
.................... 	 
.................... 	output_high(DA2_SYN); 
0ED4:  BSF    F89.2
.................... 	delay_cycles(15); 
0ED6:  MOVLW  04
0ED8:  MOVWF  00
0EDA:  DECFSZ 00,F
0EDC:  BRA    0EDA
0EDE:  BRA    0EE0
.................... 	output_low(DA2_LAT); 
0EE0:  BCF    F89.1
.................... 	delay_cycles(15); 
0EE2:  MOVLW  04
0EE4:  MOVWF  00
0EE6:  DECFSZ 00,F
0EE8:  BRA    0EE6
0EEA:  BRA    0EEC
.................... 	output_high(DA2_LAT); 
0EEC:  BSF    F89.1
.................... 	delay_cycles(15); 
0EEE:  MOVLW  04
0EF0:  MOVWF  00
0EF2:  DECFSZ 00,F
0EF4:  BRA    0EF2
0EF6:  BRA    0EF8
0EF8:  MOVLB  0
0EFA:  RETURN 0
.................... } 
....................  
.................... #include "ADF4113.c" 
....................  
.................... ULONG PLL1_A, PLL1_B; 
....................  
....................  
.................... //================================================================================== 
.................... //--------- ADF4113 handling functions ------------------------- 
.................... /* 
.................... Device Programming After Initial Power-Up 
.................... Initialization Latch Method 
....................  Apply VDD. 
....................  Program the initialization latch (11 in two LSBs of input word). 
....................   Make sure that the F1 bit is programmed to 0. 
....................  Do a function latch load (10 in two LSBs of the control word), 
....................   making sure that the F1 bit is programmed to a 0. 
....................  Do an R load (00 in two LSBs). 
....................  Do an N (A, B) load (01 in two LSBs). 
.................... When the initialization latch is loaded, the following occurs: 
....................  The function latch contents are loaded. 
....................  An internal pulse resets the R, N (A, B), and timeout counters to 
....................   load-state conditions and also three-states the charge pump. 
....................   Note that the prescaler band gap reference and the oscillator input 
....................   buffer are unaffected by the internal reset pulse, 
....................   allowing close phase alignment when counting resumes. 
....................  Latching the first N (A, B) counter data after the initialization word 
....................   activates the same internal reset pulse. 
....................   Successive N (A, B) loads will not trigger the internal reset pulse, 
....................   unless there is another initialization. 
.................... */ 
....................  
.................... void PLL1_send_bits(UCHAR data) 
....................   { 
....................   UCHAR count; 
....................   for (count = 8; count ; count--) 
*
0826:  MOVLW  08
0828:  MOVLB  1
082A:  MOVWF  xEA
082C:  MOVF   xEA,F
082E:  BZ    0880
....................     { 
....................     if (bit_test(data, count-1)) 
0830:  MOVLW  01
0832:  SUBWF  xEA,W
0834:  MOVWF  xEB
0836:  MOVFF  1E9,00
083A:  MOVF   xEB,W
083C:  MOVWF  01
083E:  BZ    0848
0840:  BCF    FD8.0
0842:  RRCF   00,F
0844:  DECFSZ 01,F
0846:  BRA    0840
0848:  BTFSS  00.0
084A:  BRA    0850
....................       output_high(PLL1_DAT); 
084C:  BSF    F8C.0
084E:  BRA    0852
....................     else 
....................       output_low(PLL1_DAT); 
0850:  BCF    F8C.0
....................     delay_us(100); 
0852:  CLRWDT
0854:  MOVLW  84
0856:  MOVWF  00
0858:  DECFSZ 00,F
085A:  BRA    0858
085C:  BRA    085E
....................     output_high(PLL1_CLK); 
085E:  BSF    F8B.3
....................     delay_us(100); 
0860:  CLRWDT
0862:  MOVLW  84
0864:  MOVWF  00
0866:  DECFSZ 00,F
0868:  BRA    0866
086A:  BRA    086C
....................     output_low(PLL1_CLK); 
086C:  BCF    F8B.3
....................  
....................     delay_us(250); 
086E:  CLRWDT
0870:  MOVLW  F9
0872:  MOVLB  2
0874:  MOVWF  x72
0876:  MOVLB  0
0878:  RCALL  0806
087A:  MOVLB  1
087C:  DECF   xEA,F
087E:  BRA    082C
....................     } 
....................   output_low(PLL1_DAT); 
0880:  BCF    F8C.0
....................   output_low(PLL1_CLK); 
0882:  BCF    F8B.3
0884:  MOVLB  0
0886:  RETURN 0
....................   } 
....................  
.................... void PLL1_send_word(ULONG prog) 
....................   { 
....................   restart_wdt(); 
0888:  CLRWDT
....................   disable_interrupts(GLOBAL); 
088A:  BCF    FF2.6
088C:  BCF    FF2.7
088E:  BTFSC  FF2.7
0890:  BRA    088C
....................   PLL1_send_bits(make8(prog, 2));               // send LSB 
0892:  MOVFF  1E6,1E8
0896:  MOVFF  1E6,1E9
089A:  RCALL  0826
....................   PLL1_send_bits(make8(prog, 1));               // send middle byte 
089C:  MOVFF  1E5,1E8
08A0:  MOVFF  1E5,1E9
08A4:  RCALL  0826
....................   PLL1_send_bits(make8(prog, 0));               // send MSB 
08A6:  MOVFF  1E4,1E8
08AA:  MOVFF  1E4,1E9
08AE:  RCALL  0826
....................   delay_us(40); 
08B0:  CLRWDT
08B2:  MOVLW  34
08B4:  MOVWF  00
08B6:  DECFSZ 00,F
08B8:  BRA    08B6
08BA:  BRA    08BC
....................   output_high(PLL1_LAT);                 // latch 24 bits into register 
08BC:  BSF    F8B.2
....................   delay_us(5); 
08BE:  CLRWDT
08C0:  MOVLW  05
08C2:  MOVWF  00
08C4:  DECFSZ 00,F
08C6:  BRA    08C4
08C8:  BRA    08CA
08CA:  NOP   
....................   output_low(PLL1_LAT);                 // latch 24 bits into register 
08CC:  BCF    F8B.2
....................   enable_interrupts(GLOBAL); 
08CE:  MOVLW  C0
08D0:  IORWF  FF2,F
....................   restart_wdt(); 
08D2:  CLRWDT
08D4:  RETURN 0
....................   } 
....................  
.................... #separate 
.................... void PLL1_update(void) 
....................   { 
....................   ULONG prog; 
....................   prog = (PLL1_B << 8) + (PLL1_A << 2) + 1; // N counter latch 
08D6:  MOVFF  16B,1E8
08DA:  MOVFF  16A,1E7
08DE:  MOVFF  169,1E6
08E2:  MOVLB  1
08E4:  CLRF   xE5
08E6:  RLCF   x65,W
08E8:  MOVWF  00
08EA:  RLCF   x66,W
08EC:  MOVWF  01
08EE:  RLCF   x67,W
08F0:  MOVWF  02
08F2:  RLCF   x68,W
08F4:  MOVWF  03
08F6:  RLCF   00,F
08F8:  RLCF   01,F
08FA:  RLCF   02,F
08FC:  RLCF   03,F
08FE:  MOVLW  FC
0900:  ANDWF  00,F
0902:  MOVF   00,W
0904:  ADDWF  xE5,F
0906:  MOVF   01,W
0908:  ADDWFC xE6,F
090A:  MOVF   02,W
090C:  ADDWFC xE7,F
090E:  MOVF   03,W
0910:  ADDWFC xE8,F
0912:  MOVLW  01
0914:  ADDWF  xE5,W
0916:  MOVWF  xE0
0918:  MOVLW  00
091A:  ADDWFC xE6,W
091C:  MOVWF  xE1
091E:  MOVLW  00
0920:  ADDWFC xE7,W
0922:  MOVWF  xE2
0924:  MOVLW  00
0926:  ADDWFC xE8,W
0928:  MOVWF  xE3
....................   restart_wdt(); 
092A:  CLRWDT
....................   PLL1_send_word(prog); 
092C:  MOVFF  1E3,1E7
0930:  MOVFF  1E2,1E6
0934:  MOVFF  1E1,1E5
0938:  MOVFF  1E0,1E4
093C:  MOVLB  0
093E:  RCALL  0888
0940:  RETURN 0
....................   } 
....................  
.................... #separate 
.................... void PLL1_initialize(void) 
....................   { 
....................   output_high(PLL1_CE);			//keep PLL CE constant HIGH 
0942:  BSF    F8B.1
....................   delay_ms(20); 
0944:  MOVLW  14
0946:  MOVLB  1
0948:  MOVWF  x8A
094A:  MOVLB  0
094C:  RCALL  07D6
....................   ULONG prog; 
....................   prog = 0b110010010000000010000011; 
094E:  MOVLB  1
0950:  CLRF   x89
0952:  MOVLW  C9
0954:  MOVWF  x88
0956:  CLRF   x87
0958:  MOVLW  83
095A:  MOVWF  x86
....................   PLL1_send_word(prog); 
095C:  MOVFF  189,1E7
0960:  MOVFF  188,1E6
0964:  MOVFF  187,1E5
0968:  MOVFF  186,1E4
096C:  MOVLB  0
096E:  RCALL  0888
....................   delay_ms(80); 
0970:  MOVLW  50
0972:  MOVLB  1
0974:  MOVWF  x8A
0976:  MOVLB  0
0978:  RCALL  07D6
....................   prog = 0b000000000000111110100000; 
097A:  MOVLB  1
097C:  CLRF   x89
097E:  CLRF   x88
0980:  MOVLW  0F
0982:  MOVWF  x87
0984:  MOVLW  A0
0986:  MOVWF  x86
....................   PLL1_send_word(prog); 
0988:  MOVFF  189,1E7
098C:  MOVFF  188,1E6
0990:  MOVFF  187,1E5
0994:  MOVFF  186,1E4
0998:  MOVLB  0
099A:  RCALL  0888
....................   delay_ms(150); 
099C:  MOVLW  96
099E:  MOVLB  1
09A0:  MOVWF  x8A
09A2:  MOVLB  0
09A4:  RCALL  07D6
....................   PLL1_update(); // N counter latch 
09A6:  RCALL  08D6
09A8:  GOTO   3234 (RETURN)
....................   } 
....................  
.................... #separate 
.................... void PLL1_reset(UCHAR PLLx) 
....................   { 
....................   output_low(PLL1_DAT); 
....................   output_low(PLL1_CLK); 
....................   delay_us(1000); 
....................   PLL1_initialize(); 
....................   } 
....................  
.................... //--------- frequency computation functions -------------------- 
.................... #separate 
.................... void PLL1_compute_freq_parameters(UINT Frequest) 
....................   { 
....................   ULONG Fvco, D; 
....................   restart_wdt(); 
*
0ABE:  CLRWDT
....................   Frequest /= 2; 
0AC0:  BCF    FD8.0
0AC2:  MOVLB  1
0AC4:  RRCF   xE3,F
0AC6:  RRCF   xE2,F
.................... //  Frequest -= (UINT)((ULONG)FREQ_BASE / 1000); 
....................   Fvco = (ULONG)FREQ_MUL * (ULONG)Frequest; 
0AC8:  MOVFF  1E2,00
0ACC:  MOVFF  1E3,01
0AD0:  CLRF   02
0AD2:  CLRF   03
0AD4:  MOVFF  03,1EF
0AD8:  MOVFF  02,1EE
0ADC:  MOVFF  1E3,1ED
0AE0:  MOVFF  1E2,1EC
0AE4:  CLRF   xF3
0AE6:  CLRF   xF2
0AE8:  CLRF   xF1
0AEA:  MOVLW  64
0AEC:  MOVWF  xF0
0AEE:  MOVFF  03,1F7
0AF2:  MOVFF  02,1F6
0AF6:  MOVFF  1E3,1F5
0AFA:  MOVFF  1E2,1F4
0AFE:  MOVLB  0
0B00:  RCALL  09D0
0B02:  MOVFF  03,1E7
0B06:  MOVFF  02,1E6
0B0A:  MOVFF  01,1E5
0B0E:  MOVFF  00,1E4
....................   restart_wdt(); 
0B12:  CLRWDT
....................   D = Fvco / FREQ_STEP; 
0B14:  BCF    FD8.1
0B16:  MOVFF  1E7,27C
0B1A:  MOVFF  1E6,27B
0B1E:  MOVFF  1E5,27A
0B22:  MOVFF  1E4,279
0B26:  MOVLB  2
0B28:  CLRF   x80
0B2A:  CLRF   x7F
0B2C:  CLRF   x7E
0B2E:  MOVLW  0A
0B30:  MOVWF  x7D
0B32:  MOVLB  0
0B34:  RCALL  0A2A
0B36:  MOVFF  03,1EB
0B3A:  MOVFF  02,1EA
0B3E:  MOVFF  01,1E9
0B42:  MOVFF  00,1E8
....................   restart_wdt(); 
0B46:  CLRWDT
....................   PLL1_B = D / FREQ_P_MULT; 
0B48:  MOVLB  1
0B4A:  RRCF   xEB,W
0B4C:  MOVWF  x6C
0B4E:  RRCF   xEA,W
0B50:  MOVWF  x6B
0B52:  RRCF   xE9,W
0B54:  MOVWF  x6A
0B56:  RRCF   xE8,W
0B58:  MOVWF  x69
0B5A:  RRCF   x6C,F
0B5C:  RRCF   x6B,F
0B5E:  RRCF   x6A,F
0B60:  RRCF   x69,F
0B62:  RRCF   x6C,F
0B64:  RRCF   x6B,F
0B66:  RRCF   x6A,F
0B68:  RRCF   x69,F
0B6A:  RRCF   x6C,F
0B6C:  RRCF   x6B,F
0B6E:  RRCF   x6A,F
0B70:  RRCF   x69,F
0B72:  RRCF   x6C,F
0B74:  RRCF   x6B,F
0B76:  RRCF   x6A,F
0B78:  RRCF   x69,F
0B7A:  RRCF   x6C,F
0B7C:  RRCF   x6B,F
0B7E:  RRCF   x6A,F
0B80:  RRCF   x69,F
0B82:  MOVLW  03
0B84:  ANDWF  x6C,F
....................   PLL1_A = D - (PLL1_B * FREQ_P_MULT); 
0B86:  RLCF   x69,W
0B88:  MOVWF  00
0B8A:  RLCF   x6A,W
0B8C:  MOVWF  01
0B8E:  RLCF   x6B,W
0B90:  MOVWF  02
0B92:  RLCF   x6C,W
0B94:  MOVWF  03
0B96:  RLCF   00,F
0B98:  RLCF   01,F
0B9A:  RLCF   02,F
0B9C:  RLCF   03,F
0B9E:  RLCF   00,F
0BA0:  RLCF   01,F
0BA2:  RLCF   02,F
0BA4:  RLCF   03,F
0BA6:  RLCF   00,F
0BA8:  RLCF   01,F
0BAA:  RLCF   02,F
0BAC:  RLCF   03,F
0BAE:  RLCF   00,F
0BB0:  RLCF   01,F
0BB2:  RLCF   02,F
0BB4:  RLCF   03,F
0BB6:  RLCF   00,F
0BB8:  RLCF   01,F
0BBA:  RLCF   02,F
0BBC:  RLCF   03,F
0BBE:  MOVLW  C0
0BC0:  ANDWF  00,F
0BC2:  MOVF   00,W
0BC4:  SUBWF  xE8,W
0BC6:  MOVWF  x65
0BC8:  MOVF   01,W
0BCA:  SUBWFB xE9,W
0BCC:  MOVWF  x66
0BCE:  MOVF   02,W
0BD0:  SUBWFB xEA,W
0BD2:  MOVWF  x67
0BD4:  MOVF   03,W
0BD6:  SUBWFB xEB,W
0BD8:  MOVWF  x68
0BDA:  MOVLB  0
0BDC:  RETURN 0
....................   } 
....................  
....................  
....................  
.................... #include "BA1533TX_intr.c" 
....................  
.................... //-------------------------------------------------------------------------- 
.................... #int_TIMER4 
.................... void  TIMER4_isr(void) 
....................   { 
....................  
....................   } 
....................  
.................... //-------------------------------------------------------------------------- 
*
0540:  BCF    F7E.0
0542:  GOTO   0090
.................... #int_TIMER2 
.................... void TIMER2_isr(void) // 1mS tick 
....................   { 
....................   TMR_1mS_Flags = 0xFF; 
0546:  SETF   1A
....................   TMR_1mS_Count++; 
0548:  INCF   1B,F
....................   if (++TMR_1mS_Cnt >= 10) 
054A:  INCF   1C,F
054C:  MOVF   1C,W
054E:  SUBLW  09
0550:  BC    0570
....................     { 
....................     TMR_1mS_Cnt = 0; 
0552:  CLRF   1C
....................     TMR_10mS_Count++; 
0554:  INCF   1D,F
....................     TMR_10mS_Flags = 0xFF; 
0556:  SETF   1E
....................     if (++TMR_10mS_Cnt >= 10) 
0558:  INCF   1F,F
055A:  MOVF   1F,W
055C:  SUBLW  09
055E:  BC    0570
....................       { 
....................       TMR_10mS_Cnt = 0; 
0560:  CLRF   1F
....................       TMR_100mS_Flags = 0xFF; 
0562:  SETF   20
....................       if (++TMR_100mS_Cnt >= 10) 
0564:  INCF   21,F
0566:  MOVF   21,W
0568:  SUBLW  09
056A:  BC    0570
....................         { 
....................         TMR_100mS_Cnt = 0; 
056C:  CLRF   21
....................         TMR_1sec_Flags = 0xFF; 
056E:  SETF   22
....................         } 
....................       } 
....................     } 
....................   } 
....................  
....................  
.................... //-------------------------------------------------------------------------- 
0570:  BCF    F9E.1
0572:  GOTO   0090
.................... #int_EXT 
.................... void  EXT_isr(void) 
....................     { 
....................  
....................     } 
....................  
.................... //-------------------------------------------------------------------------- 
0576:  BCF    FF2.1
0578:  GOTO   0090
.................... #int_EXT1 
.................... void  EXT1_isr(void) 
....................   { 
....................  
....................   } 
....................  
.................... //-------------------------------------------------------------- 
057C:  BCF    FF0.0
057E:  GOTO   0090
.................... #int_RDA 
.................... void  RDA_isr(void) 
....................   { 
....................   int8 x; 
....................   x = RCREG1; 
0582:  MOVFF  FAE,286
....................   COM1_rbuf[COM1_rxi] = x; 
0586:  CLRF   03
0588:  MOVF   2F,W
058A:  ADDLW  31
058C:  MOVWF  FE9
058E:  MOVLW  00
0590:  ADDWFC 03,W
0592:  MOVWF  FEA
0594:  MOVFF  286,FEF
....................   if (++COM1_rxi >= COM1_RX_LEN) 
0598:  INCF   2F,F
059A:  MOVF   2F,W
059C:  SUBLW  1F
059E:  BC    05A2
....................     COM1_rxi = 0; 
05A0:  CLRF   2F
....................   if (COM1_rcnt < COM1_RX_LEN) 
05A2:  MOVF   2E,W
05A4:  SUBLW  1F
05A6:  BNC   05AA
....................     COM1_rcnt++; 
05A8:  INCF   2E,F
....................   } 
....................  
05AA:  BCF    F9E.5
05AC:  GOTO   0090
.................... #int_RDA2 
.................... void  RDA2_isr(void) 
....................   { 
....................   int8 x; 
....................   x = RCREG2; 
05B0:  MOVFF  F74,286
....................   COM2_rbuf[COM2_rxi] = x; 
05B4:  CLRF   03
05B6:  MOVF   xA6,W
05B8:  ADDLW  A8
05BA:  MOVWF  FE9
05BC:  MOVLW  00
05BE:  ADDWFC 03,W
05C0:  MOVWF  FEA
05C2:  MOVFF  286,FEF
....................   if (++COM2_rxi >= COM2_RX_LEN) 
05C6:  INCF   xA6,F
05C8:  MOVF   xA6,W
05CA:  SUBLW  1F
05CC:  BC    05D0
....................     COM2_rxi = 0; 
05CE:  CLRF   xA6
....................   if (COM2_rcnt < COM2_RX_LEN) 
05D0:  MOVF   xA5,W
05D2:  SUBLW  1F
05D4:  BNC   05D8
....................     COM2_rcnt++; 
05D6:  INCF   xA5,F
....................   } 
....................  
05D8:  BCF    FA4.5
05DA:  GOTO   0090
.................... #include "BA1533TX_serial.c" 
....................  
.................... UCHAR comm_ptr; 
.................... UCHAR  pwr_command = 0, pa_command = setup.power_amp, on_command = 1, bit_mode = 0; 
....................  
.................... //UINT meter1 = 0, meter2 = 0; 
.................... //----------------------------------------------------------------------------- 
.................... UCHAR COM1_get_chr(void) 
....................   { 
....................   UCHAR x; 
....................   x = COM1_rbuf[COM1_rxo]; 
*
0FCA:  CLRF   03
0FCC:  MOVF   30,W
0FCE:  ADDLW  31
0FD0:  MOVWF  FE9
0FD2:  MOVLW  00
0FD4:  ADDWFC 03,W
0FD6:  MOVWF  FEA
0FD8:  MOVFF  FEF,1A7
....................   if (++COM1_rxo >= COM1_RX_LEN) 
0FDC:  INCF   30,F
0FDE:  MOVF   30,W
0FE0:  SUBLW  1F
0FE2:  BC    0FE6
....................     COM1_rxo = 0; 
0FE4:  CLRF   30
....................   if (COM1_rcnt) 
0FE6:  MOVF   2E,F
0FE8:  BZ    0FEC
....................     COM1_rcnt--; 
0FEA:  DECF   2E,F
....................   return x; 
0FEC:  MOVLB  1
0FEE:  MOVFF  1A7,01
0FF2:  MOVLB  0
0FF4:  RETURN 0
....................   } 
....................  
.................... //----------------------------------------------------------------------------- 
....................  
.................... UCHAR COM2_get_chr(void)		//uart CPLD 
....................   { 
....................   UCHAR x; 
....................   x = COM2_rbuf[COM2_rxo]; 
....................   if (++COM2_rxo >= COM2_RX_LEN) 
....................     COM2_rxo = 0; 
....................   if (COM2_rcnt) 
....................     COM2_rcnt--; 
....................   return x; 
....................   } 
....................  
.................... //----------------------------------------------------------------------------- 
.................... void COM1_send_str(UCHAR *str) 
....................   { 
....................   UCHAR x, pos, tab_stop; 
....................   disable_interrupts(int_RDA); 
*
0C18:  BCF    F9D.5
....................   pos = 0; 
0C1A:  MOVLB  2
0C1C:  CLRF   x6F
....................   while (*str) 
0C1E:  MOVFF  26D,03
0C22:  MOVFF  26C,FE9
0C26:  MOVFF  26D,FEA
0C2A:  MOVF   FEF,F
0C2C:  BZ    0CA2
....................     { 
....................     x = *str++; 
0C2E:  MOVFF  26D,03
0C32:  MOVF   x6C,W
0C34:  INCF   x6C,F
0C36:  BTFSC  FD8.2
0C38:  INCF   x6D,F
0C3A:  MOVWF  FE9
0C3C:  MOVFF  03,FEA
0C40:  MOVFF  FEF,26E
....................     if (x != '\t') 
0C44:  MOVF   x6E,W
0C46:  SUBLW  09
0C48:  BZ    0C6A
....................       { 
....................       TXREG1 = x; 
0C4A:  MOVFF  26E,FAD
....................       pos++; 
0C4E:  INCF   x6F,F
....................       delay_us(300); 
0C50:  CLRWDT
0C52:  MOVLW  0D
0C54:  MOVWF  x71
0C56:  MOVLW  16
0C58:  MOVWF  x72
0C5A:  MOVLB  0
0C5C:  RCALL  0806
0C5E:  MOVLB  2
0C60:  DECFSZ x71,F
0C62:  BRA    0C56
....................       x = RCREG1; 
0C64:  MOVFF  FAE,26E
....................       } 
0C68:  BRA    0CA0
....................     else 
....................       { 
....................       tab_stop = 32; 
0C6A:  MOVLW  20
0C6C:  MOVWF  x70
....................       if (pos >= tab_stop) 
0C6E:  MOVF   x70,W
0C70:  SUBWF  x6F,W
0C72:  BNC   0C7A
....................         tab_stop = pos + 2; 
0C74:  MOVLW  02
0C76:  ADDWF  x6F,W
0C78:  MOVWF  x70
....................       while (pos < tab_stop) 
0C7A:  MOVF   x70,W
0C7C:  SUBWF  x6F,W
0C7E:  BC    0CA0
....................         { 
....................         TXREG1 = ' '; 
0C80:  MOVLW  20
0C82:  MOVWF  FAD
....................         pos++; 
0C84:  INCF   x6F,F
....................         delay_us(300); 
0C86:  CLRWDT
0C88:  MOVLW  0D
0C8A:  MOVWF  x71
0C8C:  MOVLW  16
0C8E:  MOVWF  x72
0C90:  MOVLB  0
0C92:  RCALL  0806
0C94:  MOVLB  2
0C96:  DECFSZ x71,F
0C98:  BRA    0C8C
....................         x = RCREG1; 
0C9A:  MOVFF  FAE,26E
0C9E:  BRA    0C7A
....................         } 
....................       } 
0CA0:  BRA    0C1E
....................     } 
....................   x = RCREG1; 
0CA2:  MOVFF  FAE,26E
....................   enable_interrupts(int_RDA); 
0CA6:  BSF    F9D.5
0CA8:  MOVLB  0
0CAA:  RETURN 0
....................   } 
....................  
.................... //----------------------------------------------------------------------------- 
.................... void COM2_send_str(UCHAR *str)		//uart CPLD 
....................   { 
....................   UCHAR x, pos, tab_stop; 
....................   disable_interrupts(int_RDA2); 
....................   pos = 0; 
....................   while (*str) 
....................     { 
....................     x = *str++; 
....................     if (x != '\t') 
....................       { 
....................       TXREG2 = x; 
....................       pos++; 
....................       delay_us(300); 
....................       x = RCREG2; 
....................       } 
....................     else 
....................       { 
....................       tab_stop = 32; 
....................       if (pos >= tab_stop) 
....................         tab_stop = pos + 2; 
....................       while (pos < tab_stop) 
....................         { 
....................         TXREG2 = ' '; 
....................         pos++; 
....................         delay_us(300); 
....................         x = RCREG2; 
....................         } 
....................       } 
....................     } 
....................   x = RCREG2; 
....................   enable_interrupts(int_RDA2); 
....................   } 
....................  
.................... //----------------------------------------------------------------------------- 
.................... void COM1_init(void)			//UART HOST 
....................   { 
....................   COM1_rxi = COM1_rxo = COM1_rcnt = 0; 
*
06A4:  CLRF   2E
06A6:  MOVFF  2E,30
06AA:  MOVFF  30,2F
....................   comm_state = COMM_INIT; 
06AE:  CLRF   51
....................   enable_interrupts(int_RDA); 
06B0:  BSF    F9D.5
06B2:  RETURN 0
....................   } 
....................  
.................... void COM2_init(void)			//uart CPLD 
....................   { 
....................   COM2_rxi = COM2_rxo = COM2_rcnt = 0; 
....................   comm2_state = COMM2_INIT; 
....................   enable_interrupts(int_RDA2); 
....................   } 
....................  
.................... //---------------------------------------------------------------------------- 
.................... #separate 
.................... UINT get_char(void) 
....................   { 
....................   return comm_buf[comm_ptr++]; 
*
0FF6:  MOVLB  1
0FF8:  MOVF   x6D,W
0FFA:  INCF   x6D,F
0FFC:  CLRF   03
0FFE:  ADDLW  53
1000:  MOVWF  FE9
1002:  MOVLW  00
1004:  ADDWFC 03,W
1006:  MOVWF  FEA
1008:  CLRF   03
100A:  MOVFF  FEF,01
100E:  MOVFF  03,02
1012:  MOVLB  0
1014:  RETURN 0
....................   } 
....................  
.................... //---------------------------------------------------------------------------- 
.................... #separate 
.................... UINT peek_char(void) 
....................   { 
.................... //  skip_spc(); 
....................   return comm_buf[comm_ptr]; 
*
123C:  CLRF   03
123E:  MOVLB  1
1240:  MOVF   x6D,W
1242:  ADDLW  53
1244:  MOVWF  FE9
1246:  MOVLW  00
1248:  ADDWFC 03,W
124A:  MOVWF  FEA
124C:  CLRF   03
124E:  MOVFF  FEF,01
1252:  MOVFF  03,02
1256:  MOVLB  0
1258:  RETURN 0
....................   } 
....................  
.................... //---------------------------------------------------------------------------- 
.................... #separate 
.................... void skip_spc(void) 
....................   { 
....................   while (comm_buf[comm_ptr] && (comm_buf[comm_ptr] == ',' || comm_buf[comm_ptr] == ' ')) 
*
11F4:  CLRF   03
11F6:  MOVLB  1
11F8:  MOVF   x6D,W
11FA:  ADDLW  53
11FC:  MOVWF  FE9
11FE:  MOVLW  00
1200:  ADDWFC 03,W
1202:  MOVWF  FEA
1204:  MOVF   FEF,F
1206:  BZ    1238
1208:  CLRF   03
120A:  MOVF   x6D,W
120C:  ADDLW  53
120E:  MOVWF  FE9
1210:  MOVLW  00
1212:  ADDWFC 03,W
1214:  MOVWF  FEA
1216:  MOVF   FEF,W
1218:  SUBLW  2C
121A:  BZ    1230
121C:  CLRF   03
121E:  MOVF   x6D,W
1220:  ADDLW  53
1222:  MOVWF  FE9
1224:  MOVLW  00
1226:  ADDWFC 03,W
1228:  MOVWF  FEA
122A:  MOVF   FEF,W
122C:  SUBLW  20
122E:  BNZ   1238
....................     comm_ptr++; 
1230:  INCF   x6D,F
1232:  MOVLB  0
1234:  BRA    11F4
1236:  MOVLB  1
1238:  MOVLB  0
123A:  RETURN 0
....................   } 
....................  
.................... //---------------------------------------------------------------------------- 
.................... #separate 
.................... SINT get_int(void) 
*
12AE:  MOVLB  1
12B0:  CLRF   xE3
12B2:  MOVLW  01
12B4:  MOVWF  xE2
....................   { 
....................   SINT num, sign = 1; 
....................   skip_spc(); 
12B6:  MOVLB  0
12B8:  RCALL  11F4
....................   if (comm_buf[comm_ptr]) 
12BA:  CLRF   03
12BC:  MOVLB  1
12BE:  MOVF   x6D,W
12C0:  ADDLW  53
12C2:  MOVWF  FE9
12C4:  MOVLW  00
12C6:  ADDWFC 03,W
12C8:  MOVWF  FEA
12CA:  MOVF   FEF,F
12CC:  BZ    134E
....................     { 
....................     num = 0; 
12CE:  CLRF   xE1
12D0:  CLRF   xE0
....................     if (peek_char() == '-') 
12D2:  MOVLB  0
12D4:  RCALL  123C
12D6:  MOVFF  02,1E5
12DA:  MOVFF  01,1E4
12DE:  MOVLB  1
12E0:  MOVF   01,W
12E2:  SUBLW  2D
12E4:  BNZ   12F4
12E6:  MOVF   xE5,F
12E8:  BNZ   12F4
....................       { 
....................       sign = -1; 
12EA:  SETF   xE3
12EC:  SETF   xE2
....................       get_char(); 
12EE:  MOVLB  0
12F0:  RCALL  0FF6
12F2:  MOVLB  1
....................       } 
....................     while (isdigit(comm_buf[comm_ptr])) 
12F4:  CLRF   03
12F6:  MOVF   x6D,W
12F8:  ADDLW  53
12FA:  MOVWF  FE9
12FC:  MOVLW  00
12FE:  ADDWFC 03,W
1300:  MOVWF  FEA
1302:  MOVFF  FEF,1E4
1306:  MOVF   xE4,W
1308:  SUBLW  2F
130A:  BC    134E
130C:  MOVF   xE4,W
130E:  SUBLW  39
1310:  BNC   134E
....................       num = (num * 10) + (comm_buf[comm_ptr++] - '0'); 
1312:  MOVFF  1E1,1E5
1316:  MOVFF  1E0,1E4
131A:  CLRF   xE7
131C:  MOVLW  0A
131E:  MOVWF  xE6
1320:  MOVLB  0
1322:  RCALL  125A
1324:  MOVFF  02,1E5
1328:  MOVFF  01,1E4
132C:  MOVLB  1
132E:  MOVF   x6D,W
1330:  INCF   x6D,F
1332:  CLRF   03
1334:  ADDLW  53
1336:  MOVWF  FE9
1338:  MOVLW  00
133A:  ADDWFC 03,W
133C:  MOVWF  FEA
133E:  MOVLW  30
1340:  SUBWF  FEF,W
1342:  ADDWF  01,W
1344:  MOVWF  xE0
1346:  MOVLW  00
1348:  ADDWFC 02,W
134A:  MOVWF  xE1
134C:  BRA    12F4
....................     } 
.................... //  skip_spc(); 
....................   return num * sign; 
134E:  MOVFF  1E1,1E5
1352:  MOVFF  1E0,1E4
1356:  MOVFF  1E3,1E7
135A:  MOVFF  1E2,1E6
135E:  MOVLB  0
1360:  RCALL  125A
1362:  MOVFF  02,03
1366:  MOVFF  02,02
136A:  RETURN 0
....................   } 
....................  
.................... //---------------------------------------------------------------------------- 
.................... #separate 
.................... ULONG str_to_long(void) 
....................   { 
....................   ULONG num; 
....................   skip_spc(); 
....................   if (comm_buf[comm_ptr])    
....................     { 
....................     num = 0; 
....................     while (isdigit(comm_buf[comm_ptr])) 
....................       num = (num * 10) + (comm_buf[comm_ptr++] - '0'); 
....................     } 
.................... //  skip_spc(); 
....................   return num; 
....................   } 
....................  
.................... //---------------------------------------------------------------------------- 
.................... #separate 
.................... ULONG get_hex(void) 
....................   { 
....................   ULONG num; 
....................   UCHAR chr; 
....................   skip_spc(); 
....................   if (peek_char()) 
....................     { 
....................     num = 0; 
....................     while (isxdigit(peek_char())) 
....................       { 
....................       chr = get_char(); 
....................       chr = toupper(chr); 
....................       if (chr <= '9') 
....................         chr -= '0'; 
....................       else 
....................         chr = chr - ('A' - 10); 
....................       num = num * 16 + (ULONG)chr; 
....................       } 
....................     } 
....................   return num; 
....................   } 
....................  
.................... //---------------------------------------------------------------------------- 
.................... UINT get_frequency(void) 
....................   { 
....................   UINT freq; 
....................   freq = get_int(); 
136C:  RCALL  12AE
136E:  MOVFF  02,1DF
1372:  MOVFF  01,1DE
....................   return freq; 
1376:  MOVLB  1
1378:  MOVFF  1DE,01
137C:  MOVFF  1DF,02
1380:  MOVLB  0
1382:  GOTO   24AC (RETURN)
....................   } 
.................... //---------------------------------------------------------------------------- 
.................... /*void meter1(void) 
....................   { 
....................   UINT meter1; 
....................   meter1 = get_int(); 
....................   } 
....................  
.................... //---------------------------------------------------------------------------- 
.................... void meter2(void) 
....................   { 
....................   UINT meter2; 
....................   meter2 = get_int(); 
....................   } 
.................... */ 
.................... //---------------------------------------------------------------------------- 
.................... void list_help(void) 
....................   { 
....................   COM1_send_str("\r\n"); 
*
1016:  MOVLW  0D
1018:  MOVLB  1
101A:  MOVWF  xDE
101C:  MOVLW  0A
101E:  MOVWF  xDF
1020:  CLRF   xE0
1022:  MOVLW  01
1024:  MOVLB  2
1026:  MOVWF  x6D
1028:  MOVLW  DE
102A:  MOVWF  x6C
102C:  MOVLB  0
102E:  RCALL  0C18
....................   COM1_send_str("$F <frequency><cr>  \tSet frequency in 1MHz increments (i.e.2250 is 2.250GHz)\r\n"); 
1030:  MOVLW  01
1032:  MOVWF  FEA
1034:  MOVLW  DE
1036:  MOVWF  FE9
1038:  MOVFF  FF2,22D
103C:  BCF    FF2.7
103E:  MOVLW  4F
1040:  MOVWF  01
1042:  CLRF   FF7
1044:  MOVLW  00
1046:  CALL   00D2
104A:  TBLRD*-
104C:  TBLRD*+
104E:  MOVFF  FF5,FEE
1052:  DECFSZ 01,F
1054:  BRA    104C
1056:  MOVLB  2
1058:  BTFSC  x2D.7
105A:  BSF    FF2.7
105C:  MOVLW  01
105E:  MOVWF  x6D
1060:  MOVLW  DE
1062:  MOVWF  x6C
1064:  MOVLB  0
1066:  RCALL  0C18
....................   COM1_send_str("$ON <onoff><cr>  \tSet full operation on(1) or off(0)\r\n"); 
1068:  MOVLW  01
106A:  MOVWF  FEA
106C:  MOVLW  DE
106E:  MOVWF  FE9
1070:  MOVFF  FF2,22D
1074:  BCF    FF2.7
1076:  MOVLW  37
1078:  MOVWF  01
107A:  CLRF   FF7
107C:  MOVLW  00
107E:  CALL   013C
1082:  TBLRD*-
1084:  TBLRD*+
1086:  MOVFF  FF5,FEE
108A:  DECFSZ 01,F
108C:  BRA    1084
108E:  MOVLB  2
1090:  BTFSC  x2D.7
1092:  BSF    FF2.7
1094:  MOVLW  01
1096:  MOVWF  x6D
1098:  MOVLW  DE
109A:  MOVWF  x6C
109C:  MOVLB  0
109E:  RCALL  0C18
....................   COM1_send_str("$PS <power><cr>  \tSet amp power on(1) or off(0)\r\n"); 
10A0:  MOVLW  01
10A2:  MOVWF  FEA
10A4:  MOVLW  DE
10A6:  MOVWF  FE9
10A8:  MOVFF  FF2,22D
10AC:  BCF    FF2.7
10AE:  MOVLW  32
10B0:  MOVWF  01
10B2:  CLRF   FF7
10B4:  MOVLW  00
10B6:  CALL   018E
10BA:  TBLRD*-
10BC:  TBLRD*+
10BE:  MOVFF  FF5,FEE
10C2:  DECFSZ 01,F
10C4:  BRA    10BC
10C6:  MOVLB  2
10C8:  BTFSC  x2D.7
10CA:  BSF    FF2.7
10CC:  MOVLW  01
10CE:  MOVWF  x6D
10D0:  MOVLW  DE
10D2:  MOVWF  x6C
10D4:  MOVLB  0
10D6:  RCALL  0C18
....................   COM1_send_str("$P <level><cr>  \tSet power level high(1) or low(0)\r\n"); 
10D8:  MOVLW  01
10DA:  MOVWF  FEA
10DC:  MOVLW  DE
10DE:  MOVWF  FE9
10E0:  MOVFF  FF2,22D
10E4:  BCF    FF2.7
10E6:  MOVLW  35
10E8:  MOVWF  01
10EA:  CLRF   FF7
10EC:  MOVLW  00
10EE:  CALL   01DA
10F2:  TBLRD*-
10F4:  TBLRD*+
10F6:  MOVFF  FF5,FEE
10FA:  DECFSZ 01,F
10FC:  BRA    10F4
10FE:  MOVLB  2
1100:  BTFSC  x2D.7
1102:  BSF    FF2.7
1104:  MOVLW  01
1106:  MOVWF  x6D
1108:  MOVLW  DE
110A:  MOVWF  x6C
110C:  MOVLB  0
110E:  RCALL  0C18
....................   COM1_send_str("$LD <fwd><cr>  \tSet Fwd power measurement on(1) or off(0)\r\n"); 
1110:  MOVLW  01
1112:  MOVWF  FEA
1114:  MOVLW  DE
1116:  MOVWF  FE9
1118:  MOVFF  FF2,22D
111C:  BCF    FF2.7
111E:  MOVLW  3C
1120:  MOVWF  01
1122:  CLRF   FF7
1124:  MOVLW  00
1126:  CALL   022A
112A:  TBLRD*-
112C:  TBLRD*+
112E:  MOVFF  FF5,FEE
1132:  DECFSZ 01,F
1134:  BRA    112C
1136:  MOVLB  2
1138:  BTFSC  x2D.7
113A:  BSF    FF2.7
113C:  MOVLW  01
113E:  MOVWF  x6D
1140:  MOVLW  DE
1142:  MOVWF  x6C
1144:  MOVLB  0
1146:  RCALL  0C18
....................   COM1_send_str("$Q<cr>  \tRequest status\r\n"); 
1148:  MOVLW  01
114A:  MOVWF  FEA
114C:  MOVLW  DE
114E:  MOVWF  FE9
1150:  MOVFF  FF2,22D
1154:  BCF    FF2.7
1156:  MOVLW  1A
1158:  MOVWF  01
115A:  CLRF   FF7
115C:  MOVLW  00
115E:  CALL   0280
1162:  TBLRD*-
1164:  TBLRD*+
1166:  MOVFF  FF5,FEE
116A:  DECFSZ 01,F
116C:  BRA    1164
116E:  MOVLB  2
1170:  BTFSC  x2D.7
1172:  BSF    FF2.7
1174:  MOVLW  01
1176:  MOVWF  x6D
1178:  MOVLW  DE
117A:  MOVWF  x6C
117C:  MOVLB  0
117E:  RCALL  0C18
....................   COM1_send_str("$BM<cr>  \tBIT Mode ON(1) OFF(0)"); 
1180:  MOVLW  01
1182:  MOVWF  FEA
1184:  MOVLW  DE
1186:  MOVWF  FE9
1188:  MOVFF  FF2,22D
118C:  BCF    FF2.7
118E:  MOVLW  20
1190:  MOVWF  01
1192:  CLRF   FF7
1194:  MOVLW  00
1196:  CALL   02B4
119A:  TBLRD*-
119C:  TBLRD*+
119E:  MOVFF  FF5,FEE
11A2:  DECFSZ 01,F
11A4:  BRA    119C
11A6:  MOVLB  2
11A8:  BTFSC  x2D.7
11AA:  BSF    FF2.7
11AC:  MOVLW  01
11AE:  MOVWF  x6D
11B0:  MOVLW  DE
11B2:  MOVWF  x6C
11B4:  MOVLB  0
11B6:  RCALL  0C18
....................   COM1_send_str("$TR<cr>  \tTRANSIVER(T) RECIVER(R)"); 
11B8:  MOVLW  01
11BA:  MOVWF  FEA
11BC:  MOVLW  DE
11BE:  MOVWF  FE9
11C0:  MOVFF  FF2,22D
11C4:  BCF    FF2.7
11C6:  MOVLW  22
11C8:  MOVWF  01
11CA:  CLRF   FF7
11CC:  MOVLW  00
11CE:  CALL   02EE
11D2:  TBLRD*-
11D4:  TBLRD*+
11D6:  MOVFF  FF5,FEE
11DA:  DECFSZ 01,F
11DC:  BRA    11D4
11DE:  MOVLB  2
11E0:  BTFSC  x2D.7
11E2:  BSF    FF2.7
11E4:  MOVLW  01
11E6:  MOVWF  x6D
11E8:  MOVLW  DE
11EA:  MOVWF  x6C
11EC:  MOVLB  0
11EE:  RCALL  0C18
11F0:  GOTO   24A0 (RETURN)
....................   //COM1_send_str("\r\n"); 
....................   } 
....................  
.................... //---------------------------------------------------------------------------- 
.................... void send_status(void) 
....................   { 
....................   UINT revp, fpwr, itemp, idx; 
....................   UCHAR buf[64], revstat[11], light_stat[11], transmit_stat[11], bit_mode_stat[11], lock_stat[11], power_stat[11]; 
....................   float temp; 
....................  
....................  
....................  
....................   set_adc_channel(A2D_PREV); // select reverse power input 
*
1DA4:  MOVLW  10
1DA6:  MOVWF  01
1DA8:  MOVF   FC2,W
1DAA:  ANDLW  83
1DAC:  IORWF  01,W
1DAE:  MOVWF  FC2
....................   delay_us(20); 
1DB0:  CLRWDT
1DB2:  MOVLW  19
1DB4:  MOVWF  00
1DB6:  DECFSZ 00,F
1DB8:  BRA    1DB6
1DBA:  BRA    1DBC
1DBC:  NOP   
....................   revp = read_adc(); 
1DBE:  BSF    FC2.1
1DC0:  BTFSC  FC2.1
1DC2:  BRA    1DC0
1DC4:  MOVFF  FC4,1DF
1DC8:  MOVLB  1
1DCA:  MOVFF  FC3,1DE
....................  
....................   set_adc_channel(A2D_TEMP); // select temperature input 
1DCE:  MOVLW  64
1DD0:  MOVWF  01
1DD2:  MOVF   FC2,W
1DD4:  ANDLW  83
1DD6:  IORWF  01,W
1DD8:  MOVWF  FC2
....................   delay_us(20); 
1DDA:  CLRWDT
1DDC:  MOVLW  19
1DDE:  MOVWF  00
1DE0:  DECFSZ 00,F
1DE2:  BRA    1DE0
1DE4:  BRA    1DE6
1DE6:  NOP   
....................   itemp = read_adc(); 
1DE8:  BSF    FC2.1
1DEA:  BTFSC  FC2.1
1DEC:  BRA    1DEA
1DEE:  MOVFF  FC3,1E2
1DF2:  MOVFF  FC4,1E3
....................  
....................   temp = (float)itemp / 1024.0 * 3.3; 
1DF6:  MOVFF  1E3,26D
1DFA:  MOVFF  1E2,26C
1DFE:  MOVLB  0
1E00:  GOTO   14B8
1E04:  MOVFF  03,26F
1E08:  MOVFF  02,26E
1E0C:  MOVFF  01,26D
1E10:  MOVFF  00,26C
1E14:  MOVFF  03,273
1E18:  MOVFF  02,272
1E1C:  MOVFF  01,271
1E20:  MOVFF  00,270
1E24:  MOVLB  2
1E26:  CLRF   x77
1E28:  CLRF   x76
1E2A:  CLRF   x75
1E2C:  MOVLW  89
1E2E:  MOVWF  x74
1E30:  MOVLB  0
1E32:  GOTO   14F0
1E36:  MOVFF  03,26F
1E3A:  MOVFF  02,26E
1E3E:  MOVFF  01,26D
1E42:  MOVFF  00,26C
1E46:  MOVFF  03,27C
1E4A:  MOVFF  02,27B
1E4E:  MOVFF  01,27A
1E52:  MOVFF  00,279
1E56:  MOVLW  33
1E58:  MOVLB  2
1E5A:  MOVWF  x80
1E5C:  MOVWF  x7F
1E5E:  MOVLW  53
1E60:  MOVWF  x7E
1E62:  MOVLW  80
1E64:  MOVWF  x7D
1E66:  MOVLB  0
1E68:  CALL   1650
1E6C:  MOVFF  03,26B
1E70:  MOVFF  02,26A
1E74:  MOVFF  01,269
1E78:  MOVFF  00,268
....................   temp -= 0.75; 
1E7C:  BSF    FD8.1
1E7E:  MOVFF  26B,26F
1E82:  MOVFF  26A,26E
1E86:  MOVFF  269,26D
1E8A:  MOVFF  268,26C
1E8E:  MOVLB  2
1E90:  CLRF   x73
1E92:  CLRF   x72
1E94:  MOVLW  40
1E96:  MOVWF  x71
1E98:  MOVLW  7E
1E9A:  MOVWF  x70
1E9C:  MOVLB  0
1E9E:  RCALL  1746
1EA0:  MOVFF  03,26B
1EA4:  MOVFF  02,26A
1EA8:  MOVFF  01,269
1EAC:  MOVFF  00,268
....................   temp *= 100; 
1EB0:  MOVFF  26B,27C
1EB4:  MOVFF  26A,27B
1EB8:  MOVFF  269,27A
1EBC:  MOVFF  268,279
1EC0:  MOVLB  2
1EC2:  CLRF   x80
1EC4:  CLRF   x7F
1EC6:  MOVLW  48
1EC8:  MOVWF  x7E
1ECA:  MOVLW  85
1ECC:  MOVWF  x7D
1ECE:  MOVLB  0
1ED0:  CALL   1650
1ED4:  MOVFF  03,26B
1ED8:  MOVFF  02,26A
1EDC:  MOVFF  01,269
1EE0:  MOVFF  00,268
....................   temp += 25.0; 
1EE4:  BCF    FD8.1
1EE6:  MOVFF  26B,26F
1EEA:  MOVFF  26A,26E
1EEE:  MOVFF  269,26D
1EF2:  MOVFF  268,26C
1EF6:  MOVLB  2
1EF8:  CLRF   x73
1EFA:  CLRF   x72
1EFC:  MOVLW  48
1EFE:  MOVWF  x71
1F00:  MOVLW  83
1F02:  MOVWF  x70
1F04:  MOVLB  0
1F06:  RCALL  1746
1F08:  MOVFF  03,26B
1F0C:  MOVFF  02,26A
1F10:  MOVFF  01,269
1F14:  MOVFF  00,268
....................  
....................   set_adc_channel(A2D_POWER); // select forward power input 
1F18:  MOVLW  14
1F1A:  MOVWF  01
1F1C:  MOVF   FC2,W
1F1E:  ANDLW  83
1F20:  IORWF  01,W
1F22:  MOVWF  FC2
....................   delay_us(20); 
1F24:  CLRWDT
1F26:  MOVLW  19
1F28:  MOVWF  00
1F2A:  DECFSZ 00,F
1F2C:  BRA    1F2A
1F2E:  BRA    1F30
1F30:  NOP   
....................   fpwr = read_adc(); 
1F32:  BSF    FC2.1
1F34:  BTFSC  FC2.1
1F36:  BRA    1F34
1F38:  MOVFF  FC4,1E1
1F3C:  MOVLB  1
1F3E:  MOVFF  FC3,1E0
....................  
....................   for (idx = 0; idx < 12; idx++) 
1F42:  CLRF   xE5
1F44:  CLRF   xE4
1F46:  MOVF   xE5,F
1F48:  BNZ   1F8E
1F4A:  MOVF   xE4,W
1F4C:  SUBLW  0B
1F4E:  BNC   1F8E
....................     if (fpwr <= setup.fwd_table[idx][0]) 
1F50:  RLCF   xE4,W
1F52:  MOVWF  02
1F54:  RLCF   xE5,W
1F56:  MOVWF  03
1F58:  RLCF   02,F
1F5A:  RLCF   03,F
1F5C:  MOVLW  FC
1F5E:  ANDWF  02,F
1F60:  MOVF   02,W
1F62:  ADDLW  2F
1F64:  MOVWF  FE9
1F66:  MOVLW  01
1F68:  ADDWFC 03,W
1F6A:  MOVWF  FEA
1F6C:  MOVFF  FEC,03
1F70:  MOVF   FED,F
1F72:  MOVFF  FEF,01
1F76:  MOVF   xE1,W
1F78:  SUBWF  03,W
1F7A:  BNC   1F86
1F7C:  BNZ   1F84
1F7E:  MOVF   xE0,W
1F80:  SUBWF  01,W
1F82:  BNC   1F86
....................       break; 
1F84:  BRA    1F8E
1F86:  INCF   xE4,F
1F88:  BTFSC  FD8.2
1F8A:  INCF   xE5,F
1F8C:  BRA    1F46
....................   fpwr = setup.fwd_table[idx][1]; 
1F8E:  RLCF   xE4,W
1F90:  MOVWF  02
1F92:  RLCF   xE5,W
1F94:  MOVWF  03
1F96:  RLCF   02,F
1F98:  RLCF   03,F
1F9A:  MOVLW  FC
1F9C:  ANDWF  02,F
1F9E:  MOVF   02,W
1FA0:  ADDLW  13
1FA2:  MOVLB  2
1FA4:  MOVWF  x6C
1FA6:  MOVLW  00
1FA8:  ADDWFC 03,W
1FAA:  MOVWF  x6D
1FAC:  MOVLW  02
1FAE:  ADDWF  x6C,W
1FB0:  MOVWF  01
1FB2:  MOVLW  00
1FB4:  ADDWFC x6D,W
1FB6:  MOVWF  03
1FB8:  MOVF   01,W
1FBA:  ADDLW  1C
1FBC:  MOVWF  FE9
1FBE:  MOVLW  01
1FC0:  ADDWFC 03,W
1FC2:  MOVWF  FEA
1FC4:  MOVFF  FEC,1E1
1FC8:  MOVF   FED,F
1FCA:  MOVFF  FEF,1E0
....................  
....................   if (revp <= 530) 
1FCE:  MOVLB  1
1FD0:  MOVF   xDF,W
1FD2:  SUBLW  02
1FD4:  BNC   200A
1FD6:  BNZ   1FDE
1FD8:  MOVF   xDE,W
1FDA:  SUBLW  12
1FDC:  BNC   200A
....................     strcpy(revstat, "GOOD"); 
1FDE:  MOVLW  02
1FE0:  MOVWF  FEA
1FE2:  MOVLW  26
1FE4:  MOVWF  FE9
1FE6:  MOVFF  FF2,26C
1FEA:  BCF    FF2.7
1FEC:  MOVLW  00
1FEE:  MOVLB  0
1FF0:  CALL   032A
1FF4:  TBLRD*-
1FF6:  TBLRD*+
1FF8:  MOVF   FF5,W
1FFA:  MOVWF  FEE
1FFC:  IORLW  00
1FFE:  BNZ   1FF6
2000:  MOVLB  2
2002:  BTFSC  x6C.7
2004:  BSF    FF2.7
2006:  BRA    2032
2008:  MOVLB  1
....................   else 
....................     strcpy(revstat, "BAD"); 
200A:  MOVLW  02
200C:  MOVWF  FEA
200E:  MOVLW  26
2010:  MOVWF  FE9
2012:  MOVFF  FF2,26C
2016:  BCF    FF2.7
2018:  MOVLW  00
201A:  MOVLB  0
201C:  CALL   034A
2020:  TBLRD*-
2022:  TBLRD*+
2024:  MOVF   FF5,W
2026:  MOVWF  FEE
2028:  IORLW  00
202A:  BNZ   2022
202C:  MOVLB  2
202E:  BTFSC  x6C.7
2030:  BSF    FF2.7
....................  
....................   if(setup.meter_backlight == 1) 
2032:  MOVLB  1
2034:  DECFSZ x5D,W
2036:  BRA    2064
....................   	strcpy(light_stat, "ON"); 
2038:  MOVLW  02
203A:  MOVWF  FEA
203C:  MOVLW  31
203E:  MOVWF  FE9
2040:  MOVFF  FF2,26C
2044:  BCF    FF2.7
2046:  MOVLW  00
2048:  MOVLB  0
204A:  CALL   0368
204E:  TBLRD*-
2050:  TBLRD*+
2052:  MOVF   FF5,W
2054:  MOVWF  FEE
2056:  IORLW  00
2058:  BNZ   2050
205A:  MOVLB  2
205C:  BTFSC  x6C.7
205E:  BSF    FF2.7
2060:  BRA    208C
2062:  MOVLB  1
....................   else  
....................   	strcpy(light_stat, "OFF"); 
2064:  MOVLW  02
2066:  MOVWF  FEA
2068:  MOVLW  31
206A:  MOVWF  FE9
206C:  MOVFF  FF2,26C
2070:  BCF    FF2.7
2072:  MOVLW  00
2074:  MOVLB  0
2076:  CALL   0386
207A:  TBLRD*-
207C:  TBLRD*+
207E:  MOVF   FF5,W
2080:  MOVWF  FEE
2082:  IORLW  00
2084:  BNZ   207C
2086:  MOVLB  2
2088:  BTFSC  x6C.7
208A:  BSF    FF2.7
....................  
....................   if((pa_command == 1) && (on_command == 1)) 
208C:  MOVLB  1
208E:  DECFSZ x6F,W
2090:  BRA    20C2
2092:  DECFSZ x70,W
2094:  BRA    20C2
....................   	strcpy(transmit_stat, "ON"); 
2096:  MOVLW  02
2098:  MOVWF  FEA
209A:  MOVLW  3C
209C:  MOVWF  FE9
209E:  MOVFF  FF2,26C
20A2:  BCF    FF2.7
20A4:  MOVLW  00
20A6:  MOVLB  0
20A8:  CALL   0368
20AC:  TBLRD*-
20AE:  TBLRD*+
20B0:  MOVF   FF5,W
20B2:  MOVWF  FEE
20B4:  IORLW  00
20B6:  BNZ   20AE
20B8:  MOVLB  2
20BA:  BTFSC  x6C.7
20BC:  BSF    FF2.7
20BE:  BRA    20EA
20C0:  MOVLB  1
....................   else  
....................   	strcpy(transmit_stat, "OFF"); 
20C2:  MOVLW  02
20C4:  MOVWF  FEA
20C6:  MOVLW  3C
20C8:  MOVWF  FE9
20CA:  MOVFF  FF2,26C
20CE:  BCF    FF2.7
20D0:  MOVLW  00
20D2:  MOVLB  0
20D4:  CALL   0386
20D8:  TBLRD*-
20DA:  TBLRD*+
20DC:  MOVF   FF5,W
20DE:  MOVWF  FEE
20E0:  IORLW  00
20E2:  BNZ   20DA
20E4:  MOVLB  2
20E6:  BTFSC  x6C.7
20E8:  BSF    FF2.7
....................  
....................   if(bit_mode == 1) 
20EA:  MOVLB  1
20EC:  DECFSZ x71,W
20EE:  BRA    211C
....................   	strcpy(bit_mode_stat, "START"); 
20F0:  MOVLW  02
20F2:  MOVWF  FEA
20F4:  MOVLW  47
20F6:  MOVWF  FE9
20F8:  MOVFF  FF2,26C
20FC:  BCF    FF2.7
20FE:  MOVLW  00
2100:  MOVLB  0
2102:  CALL   03A4
2106:  TBLRD*-
2108:  TBLRD*+
210A:  MOVF   FF5,W
210C:  MOVWF  FEE
210E:  IORLW  00
2110:  BNZ   2108
2112:  MOVLB  2
2114:  BTFSC  x6C.7
2116:  BSF    FF2.7
2118:  BRA    2144
211A:  MOVLB  1
....................   else  
....................   	strcpy(bit_mode_stat, "STOP"); 
211C:  MOVLW  02
211E:  MOVWF  FEA
2120:  MOVLW  47
2122:  MOVWF  FE9
2124:  MOVFF  FF2,26C
2128:  BCF    FF2.7
212A:  MOVLW  00
212C:  MOVLB  0
212E:  CALL   03C4
2132:  TBLRD*-
2134:  TBLRD*+
2136:  MOVF   FF5,W
2138:  MOVWF  FEE
213A:  IORLW  00
213C:  BNZ   2134
213E:  MOVLB  2
2140:  BTFSC  x6C.7
2142:  BSF    FF2.7
....................  
....................   if(!input(PLL1_LD)) 
2144:  BTFSC  F83.1
2146:  BRA    2172
.................... 	strcpy(lock_stat, "LOCK"); 
2148:  MOVLW  02
214A:  MOVWF  FEA
214C:  MOVLW  52
214E:  MOVWF  FE9
2150:  MOVFF  FF2,26C
2154:  BCF    FF2.7
2156:  MOVLW  00
2158:  MOVLB  0
215A:  CALL   03E4
215E:  TBLRD*-
2160:  TBLRD*+
2162:  MOVF   FF5,W
2164:  MOVWF  FEE
2166:  IORLW  00
2168:  BNZ   2160
216A:  MOVLB  2
216C:  BTFSC  x6C.7
216E:  BSF    FF2.7
2170:  BRA    219A
....................   else 
....................     strcpy(lock_stat, "NOT LOCK"); 
2172:  MOVLW  02
2174:  MOVWF  FEA
2176:  MOVLW  52
2178:  MOVWF  FE9
217A:  MOVFF  FF2,26C
217E:  BCF    FF2.7
2180:  MOVLW  00
2182:  MOVLB  0
2184:  CALL   0404
2188:  TBLRD*-
218A:  TBLRD*+
218C:  MOVF   FF5,W
218E:  MOVWF  FEE
2190:  IORLW  00
2192:  BNZ   218A
2194:  MOVLB  2
2196:  BTFSC  x6C.7
2198:  BSF    FF2.7
....................  
....................  
....................   if(setup.power_level == 1) 
219A:  MOVLB  1
219C:  DECFSZ x1F,W
219E:  BRA    21D0
21A0:  MOVF   x20,F
21A2:  BNZ   21D0
.................... 	strcpy(power_stat, "HIGH"); 
21A4:  MOVLW  02
21A6:  MOVWF  FEA
21A8:  MOVLW  5D
21AA:  MOVWF  FE9
21AC:  MOVFF  FF2,26C
21B0:  BCF    FF2.7
21B2:  MOVLW  00
21B4:  MOVLB  0
21B6:  CALL   0428
21BA:  TBLRD*-
21BC:  TBLRD*+
21BE:  MOVF   FF5,W
21C0:  MOVWF  FEE
21C2:  IORLW  00
21C4:  BNZ   21BC
21C6:  MOVLB  2
21C8:  BTFSC  x6C.7
21CA:  BSF    FF2.7
21CC:  BRA    21F8
21CE:  MOVLB  1
....................   else 
....................     strcpy(power_stat, "LOW"); 
21D0:  MOVLW  02
21D2:  MOVWF  FEA
21D4:  MOVLW  5D
21D6:  MOVWF  FE9
21D8:  MOVFF  FF2,26C
21DC:  BCF    FF2.7
21DE:  MOVLW  00
21E0:  MOVLB  0
21E2:  CALL   0448
21E6:  TBLRD*-
21E8:  TBLRD*+
21EA:  MOVF   FF5,W
21EC:  MOVWF  FEE
21EE:  IORLW  00
21F0:  BNZ   21E8
21F2:  MOVLB  2
21F4:  BTFSC  x6C.7
21F6:  BSF    FF2.7
....................   
....................  
....................  
....................  
....................   sprintf(buf, "\r\nFREQ=%lu, REV=%s, LIGHT=%s, FWD=%ludBM, TEMP=%5.1f, TRANSMIT=%s, ID=%lu, DC=%02lu%02u, VER %ls, ", 
....................           setup.frequency, revstat, light_stat, fpwr, temp, transmit_stat, setup.unit_ID, setup.year, setup.week, VERSION_V); 
21F8:  MOVLW  01
21FA:  MOVLB  1
21FC:  MOVWF  x73
21FE:  MOVLW  E6
2200:  MOVWF  x72
2202:  MOVLW  DE
2204:  MOVWF  FF6
2206:  MOVLW  05
2208:  MOVWF  FF7
220A:  MOVLW  07
220C:  MOVLB  2
220E:  MOVWF  x6C
2210:  MOVLB  0
2212:  CALL   19E0
2216:  MOVLW  10
2218:  MOVWF  FE9
221A:  MOVFF  11E,26D
221E:  MOVFF  11D,26C
2222:  CALL   1A08
2226:  MOVLW  E8
2228:  MOVWF  FF6
222A:  MOVLW  05
222C:  MOVWF  FF7
222E:  MOVLW  06
2230:  MOVLB  2
2232:  MOVWF  x6C
2234:  MOVLB  0
2236:  CALL   19E0
223A:  MOVLW  02
223C:  MOVWF  FEA
223E:  MOVLW  26
2240:  MOVWF  FE9
2242:  RCALL  1AC4
2244:  MOVLW  F0
2246:  MOVWF  FF6
2248:  MOVLW  05
224A:  MOVWF  FF7
224C:  MOVLW  08
224E:  MOVLB  2
2250:  MOVWF  x6C
2252:  MOVLB  0
2254:  CALL   19E0
2258:  MOVLW  02
225A:  MOVWF  FEA
225C:  MOVLW  31
225E:  MOVWF  FE9
2260:  RCALL  1AC4
2262:  MOVLW  FA
2264:  MOVWF  FF6
2266:  MOVLW  05
2268:  MOVWF  FF7
226A:  MOVLW  06
226C:  MOVLB  2
226E:  MOVWF  x6C
2270:  MOVLB  0
2272:  CALL   19E0
2276:  MOVLW  10
2278:  MOVWF  FE9
227A:  MOVFF  1E1,26D
227E:  MOVFF  1E0,26C
2282:  CALL   1A08
2286:  MOVLW  03
2288:  MOVWF  FF6
228A:  MOVLW  06
228C:  MOVWF  FF7
228E:  MOVLW  0A
2290:  MOVLB  2
2292:  MOVWF  x6C
2294:  MOVLB  0
2296:  CALL   19E0
229A:  MOVLW  04
229C:  MOVWF  FE9
229E:  MOVFF  26B,26F
22A2:  MOVFF  26A,26E
22A6:  MOVFF  269,26D
22AA:  MOVFF  268,26C
22AE:  MOVLW  01
22B0:  MOVLB  2
22B2:  MOVWF  x70
22B4:  MOVLB  0
22B6:  BRA    1B2C
22B8:  MOVLW  12
22BA:  MOVWF  FF6
22BC:  MOVLW  06
22BE:  MOVWF  FF7
22C0:  MOVLW  0B
22C2:  MOVLB  2
22C4:  MOVWF  x6C
22C6:  MOVLB  0
22C8:  CALL   19E0
22CC:  MOVLW  02
22CE:  MOVWF  FEA
22D0:  MOVLW  3C
22D2:  MOVWF  FE9
22D4:  CALL   1AC4
22D8:  MOVLW  1F
22DA:  MOVWF  FF6
22DC:  MOVLW  06
22DE:  MOVWF  FF7
22E0:  MOVLW  05
22E2:  MOVLB  2
22E4:  MOVWF  x6C
22E6:  MOVLB  0
22E8:  CALL   19E0
22EC:  MOVLW  10
22EE:  MOVWF  FE9
22F0:  MOVFF  162,26D
22F4:  MOVFF  161,26C
22F8:  CALL   1A08
22FC:  MOVLW  27
22FE:  MOVWF  FF6
2300:  MOVLW  06
2302:  MOVWF  FF7
2304:  MOVLW  05
2306:  MOVLB  2
2308:  MOVWF  x6C
230A:  MOVLB  0
230C:  CALL   19E0
2310:  MOVLW  0B
2312:  MOVWF  FE9
2314:  MOVFF  15F,26D
2318:  MOVFF  15E,26C
231C:  CALL   1A08
2320:  MOVFF  160,26C
2324:  MOVLW  01
2326:  MOVLB  2
2328:  MOVWF  x6D
232A:  MOVLB  0
232C:  BRA    1D04
232E:  MOVLW  35
2330:  MOVWF  FF6
2332:  MOVLW  06
2334:  MOVWF  FF7
2336:  MOVLW  06
2338:  MOVLB  2
233A:  MOVWF  x6C
233C:  MOVLB  0
233E:  CALL   19E0
2342:  MOVLW  42
2344:  MOVWF  FF6
2346:  MOVLW  06
2348:  MOVWF  FF7
234A:  BRA    1D82
234C:  MOVLW  2C
234E:  MOVLB  2
2350:  MOVWF  x79
2352:  MOVLB  0
2354:  CALL   19BE
2358:  MOVLW  20
235A:  MOVLB  2
235C:  MOVWF  x79
235E:  MOVLB  0
2360:  CALL   19BE
....................   COM1_send_str(buf); 
2364:  MOVLW  01
2366:  MOVLB  2
2368:  MOVWF  x6D
236A:  MOVLW  E6
236C:  MOVWF  x6C
236E:  MOVLB  0
2370:  CALL   0C18
....................   sprintf(buf, "BIT MODE=%s, SYNTH LOCK=%s, POWER=%s, ",bit_mode_stat, lock_stat, power_stat); 
2374:  MOVLW  01
2376:  MOVLB  1
2378:  MOVWF  x73
237A:  MOVLW  E6
237C:  MOVWF  x72
237E:  MOVLW  48
2380:  MOVWF  FF6
2382:  MOVLW  06
2384:  MOVWF  FF7
2386:  MOVLW  09
2388:  MOVLB  2
238A:  MOVWF  x6C
238C:  MOVLB  0
238E:  CALL   19E0
2392:  MOVLW  02
2394:  MOVWF  FEA
2396:  MOVLW  47
2398:  MOVWF  FE9
239A:  CALL   1AC4
239E:  MOVLW  53
23A0:  MOVWF  FF6
23A2:  MOVLW  06
23A4:  MOVWF  FF7
23A6:  MOVLW  0D
23A8:  MOVLB  2
23AA:  MOVWF  x6C
23AC:  MOVLB  0
23AE:  CALL   19E0
23B2:  MOVLW  02
23B4:  MOVWF  FEA
23B6:  MOVLW  52
23B8:  MOVWF  FE9
23BA:  CALL   1AC4
23BE:  MOVLW  62
23C0:  MOVWF  FF6
23C2:  MOVLW  06
23C4:  MOVWF  FF7
23C6:  MOVLW  08
23C8:  MOVLB  2
23CA:  MOVWF  x6C
23CC:  MOVLB  0
23CE:  CALL   19E0
23D2:  MOVLW  02
23D4:  MOVWF  FEA
23D6:  MOVLW  5D
23D8:  MOVWF  FE9
23DA:  CALL   1AC4
23DE:  MOVLW  2C
23E0:  MOVLB  2
23E2:  MOVWF  x79
23E4:  MOVLB  0
23E6:  CALL   19BE
23EA:  MOVLW  20
23EC:  MOVLB  2
23EE:  MOVWF  x79
23F0:  MOVLB  0
23F2:  CALL   19BE
....................  
....................   COM1_send_str(buf); 
23F6:  MOVLW  01
23F8:  MOVLB  2
23FA:  MOVWF  x6D
23FC:  MOVLW  E6
23FE:  MOVWF  x6C
2400:  MOVLB  0
2402:  CALL   0C18
2406:  GOTO   2FB6 (RETURN)
....................  
....................   } 
....................  
.................... //---------------------------------------------------------------------------- 
.................... bit set_power_level(void) 
....................   { 
....................   UINT idx; 
....................   idx = get_int(); 
*
148A:  RCALL  12AE
148C:  MOVFF  02,1DF
1490:  MOVFF  01,1DE
....................   if (idx < 2) 
1494:  MOVLB  1
1496:  MOVF   xDF,F
1498:  BNZ   14AE
149A:  MOVF   xDE,W
149C:  SUBLW  01
149E:  BNC   14AE
....................    { 
....................     setup.power_level = idx; 
14A0:  MOVFF  1DF,120
14A4:  MOVFF  1DE,11F
....................     return 1; 
14A8:  MOVLW  01
14AA:  MOVWF  01
14AC:  BRA    14B2
....................     } 
....................   return 0; 
14AE:  MOVLW  00
14B0:  MOVWF  01
14B2:  MOVLB  0
14B4:  GOTO   2972 (RETURN)
....................   } 
.................... //---------------------------------------------------------------------------- 
.................... /*UINT meter_out(void) 
....................   { 
....................   UINT meter; 
....................   meter = get_int(); 
....................   if(meter && meter<=200) 
....................   { 
....................     return meter; 
....................   } 
.................... return 0; 
....................  
....................   } 
....................  
....................  
....................  
....................  
....................  
....................  
....................  
.................... */ 
.................... //---------------------------------------------------------------------------- 
.................... // command format: 
.................... //   $<cmd> [<number>[,<number>]]<cr> 
.................... // where: 
.................... //    <cmd>       a two letter operation specifier 
.................... //    <number>    value to be used in operation 
.................... //    <cr>        0x0D character ending command string 
.................... // 
.................... UCHAR process_dollar_commands(void) 
....................   { 
....................   UCHAR chr, idx, addr; 
....................   ULONG freq; 
....................   UINT  value;// meter1, meter2; 
....................   chr = 2; 
*
240A:  MOVLW  02
240C:  MOVLB  1
240E:  MOVWF  xA7
....................   comm_ptr = 0; 
2410:  CLRF   x6D
....................   UINT year, week; 
....................   int16 dac_val; 
....................   switch (toupper(get_char())) 
2412:  MOVLB  0
2414:  CALL   0FF6
2418:  MOVFF  02,1DF
241C:  MOVFF  01,1DE
2420:  MOVLB  1
2422:  MOVF   xDF,F
2424:  BNZ   242C
2426:  MOVF   xDE,W
2428:  SUBLW  60
242A:  BC    243C
242C:  MOVF   xDF,F
242E:  BNZ   243C
2430:  MOVF   xDE,W
2432:  SUBLW  7A
2434:  BNC   243C
2436:  MOVF   xDE,W
2438:  ANDLW  DF
243A:  BRA    243E
243C:  MOVF   xDE,W
243E:  XORLW  48
2440:  MOVLB  0
2442:  BZ    249C
2444:  XORLW  77
2446:  BZ    249C
2448:  XORLW  79
244A:  BZ    24A8
244C:  XORLW  09
244E:  BTFSC  FD8.2
2450:  BRA    2650
2452:  XORLW  1B
2454:  BTFSC  FD8.2
2456:  BRA    272A
2458:  XORLW  16
245A:  BTFSC  FD8.2
245C:  BRA    27DC
245E:  XORLW  12
2460:  BTFSC  FD8.2
2462:  BRA    28C4
2464:  XORLW  1C
2466:  BTFSC  FD8.2
2468:  BRA    2984
246A:  XORLW  0F
246C:  BTFSC  FD8.2
246E:  BRA    2A68
2470:  XORLW  10
2472:  BTFSC  FD8.2
2474:  GOTO   2C56
2478:  XORLW  62
247A:  BTFSC  FD8.2
247C:  GOTO   2EB8
2480:  XORLW  03
2482:  BTFSC  FD8.2
2484:  GOTO   2F26
2488:  XORLW  01
248A:  BTFSC  FD8.2
248C:  GOTO   2F90
2490:  XORLW  62
2492:  BTFSC  FD8.2
2494:  GOTO   2F9E
2498:  GOTO   2FA4
....................     { 
....................     case 'H': case '?': 
....................       list_help(); 
249C:  GOTO   1016
....................       return 0; 
24A0:  MOVLW  00
24A2:  MOVWF  01
24A4:  GOTO   2FBA
....................    case 'F': 
....................       freq = get_frequency(); 
24A8:  GOTO   136C
24AC:  MOVLB  1
24AE:  CLRF   xAD
24B0:  CLRF   xAC
24B2:  MOVFF  02,1AB
24B6:  MOVFF  01,1AA
....................       if(setup.power_level) 
24BA:  MOVF   x1F,W
24BC:  IORWF  x20,W
24BE:  BZ    2588
.................... 		{ 
.................... 			if (freq >= FRQ_HI_BOT && freq <= FRQ_HI_TOP) 
24C0:  MOVF   xAD,F
24C2:  BNZ   24D8
24C4:  MOVF   xAC,F
24C6:  BNZ   24D8
24C8:  MOVF   xAB,W
24CA:  SUBLW  15
24CC:  BC    2546
24CE:  XORLW  FF
24D0:  BNZ   24D8
24D2:  MOVF   xAA,W
24D4:  SUBLW  2A
24D6:  BC    2546
24D8:  MOVF   xAD,F
24DA:  BNZ   2546
24DC:  MOVF   xAC,F
24DE:  BNZ   2546
24E0:  MOVF   xAB,W
24E2:  SUBLW  16
24E4:  BNC   2546
24E6:  BNZ   24EE
24E8:  MOVF   xAA,W
24EA:  SUBLW  35
24EC:  BNC   2546
....................          	{ 
....................              setup.frequency = freq; 
24EE:  MOVFF  1AB,11E
24F2:  MOVFF  1AA,11D
....................              PLL1_compute_freq_parameters(freq * 10); 
24F6:  MOVFF  1AD,1F3
24FA:  MOVFF  1AC,1F2
24FE:  MOVFF  1AB,1F1
2502:  MOVFF  1AA,1F0
2506:  CLRF   xF7
2508:  CLRF   xF6
250A:  CLRF   xF5
250C:  MOVLW  0A
250E:  MOVWF  xF4
2510:  MOVLB  0
2512:  CALL   09D0
2516:  MOVFF  01,1DF
251A:  MOVFF  00,1DE
251E:  MOVFF  01,1E3
2522:  MOVFF  00,1E2
2526:  CALL   0ABE
....................              PLL1_update();              
252A:  CALL   08D6
....................              allow_write = 2975; 
252E:  MOVLW  0B
2530:  MOVLB  1
2532:  MOVWF  x64
2534:  MOVLW  9F
2536:  MOVWF  x63
....................              write_setup(); 
2538:  MOVLB  0
253A:  CALL   13F6
....................              update_all(); 
253E:  CALL   0BDE
....................          	} 
2542:  BRA    2584
2544:  MOVLB  1
....................       		else 
....................          		COM1_send_str("\r\n$FAIL\r\n"); 
2546:  MOVLW  01
2548:  MOVWF  FEA
254A:  MOVLW  B6
254C:  MOVWF  FE9
254E:  MOVFF  FF2,1DE
2552:  BCF    FF2.7
2554:  MOVLW  0A
2556:  MOVWF  01
2558:  CLRF   FF7
255A:  MOVLW  00
255C:  MOVLB  0
255E:  CALL   0466
2562:  TBLRD*-
2564:  TBLRD*+
2566:  MOVFF  FF5,FEE
256A:  DECFSZ 01,F
256C:  BRA    2564
256E:  MOVLB  1
2570:  BTFSC  xDE.7
2572:  BSF    FF2.7
2574:  MOVLW  01
2576:  MOVLB  2
2578:  MOVWF  x6D
257A:  MOVLW  B6
257C:  MOVWF  x6C
257E:  MOVLB  0
2580:  CALL   0C18
....................   		} 
2584:  BRA    264C
2586:  MOVLB  1
.................... 		else 
....................     	{ 
.................... 		    if (freq >= FRQ_LO_BOT && freq <= FRQ_LO_TOP) 
2588:  MOVF   xAD,F
258A:  BNZ   25A0
258C:  MOVF   xAC,F
258E:  BNZ   25A0
2590:  MOVF   xAB,W
2592:  SUBLW  13
2594:  BC    260E
2596:  XORLW  FF
2598:  BNZ   25A0
259A:  MOVF   xAA,W
259C:  SUBLW  1D
259E:  BC    260E
25A0:  MOVF   xAD,F
25A2:  BNZ   260E
25A4:  MOVF   xAC,F
25A6:  BNZ   260E
25A8:  MOVF   xAB,W
25AA:  SUBLW  14
25AC:  BNC   260E
25AE:  BNZ   25B6
25B0:  MOVF   xAA,W
25B2:  SUBLW  82
25B4:  BNC   260E
....................          	{ 
....................               setup.frequency = freq; 
25B6:  MOVFF  1AB,11E
25BA:  MOVFF  1AA,11D
....................               PLL1_compute_freq_parameters(freq * 10); 
25BE:  MOVFF  1AD,1F3
25C2:  MOVFF  1AC,1F2
25C6:  MOVFF  1AB,1F1
25CA:  MOVFF  1AA,1F0
25CE:  CLRF   xF7
25D0:  CLRF   xF6
25D2:  CLRF   xF5
25D4:  MOVLW  0A
25D6:  MOVWF  xF4
25D8:  MOVLB  0
25DA:  CALL   09D0
25DE:  MOVFF  01,1DF
25E2:  MOVFF  00,1DE
25E6:  MOVFF  01,1E3
25EA:  MOVFF  00,1E2
25EE:  CALL   0ABE
....................               PLL1_update();              
25F2:  CALL   08D6
....................             allow_write = 2975; 
25F6:  MOVLW  0B
25F8:  MOVLB  1
25FA:  MOVWF  x64
25FC:  MOVLW  9F
25FE:  MOVWF  x63
....................              write_setup(); 
2600:  MOVLB  0
2602:  CALL   13F6
....................              update_all(); 
2606:  CALL   0BDE
....................          	} 
260A:  BRA    264C
260C:  MOVLB  1
....................       		else 
....................          		COM1_send_str("\r\n$FAIL\r\n"); 
260E:  MOVLW  01
2610:  MOVWF  FEA
2612:  MOVLW  C0
2614:  MOVWF  FE9
2616:  MOVFF  FF2,1DE
261A:  BCF    FF2.7
261C:  MOVLW  0A
261E:  MOVWF  01
2620:  CLRF   FF7
2622:  MOVLW  00
2624:  MOVLB  0
2626:  CALL   0466
262A:  TBLRD*-
262C:  TBLRD*+
262E:  MOVFF  FF5,FEE
2632:  DECFSZ 01,F
2634:  BRA    262C
2636:  MOVLB  1
2638:  BTFSC  xDE.7
263A:  BSF    FF2.7
263C:  MOVLW  01
263E:  MOVLB  2
2640:  MOVWF  x6D
2642:  MOVLW  C0
2644:  MOVWF  x6C
2646:  MOVLB  0
2648:  CALL   0C18
....................      
....................     	} 
....................       break; 
264C:  GOTO   2FB6
....................        
....................     /*  case 'M': 
....................         idx = get_int(); 
....................         if(idx ==1) 
....................           { 
....................           value = get_int(); 
....................           meter1 = value; 
....................           } 
....................           if(idx == 2) 
....................             { 
....................             value = get_int(); 
....................             meter2 = value; 
....................             } 
....................             break; 
.................... */ 
....................     case 'O': 
....................       if (toupper(get_char()) == 'N') 
2650:  CALL   0FF6
2654:  MOVFF  02,1DF
2658:  MOVFF  01,1DE
265C:  MOVLB  1
265E:  MOVF   xDF,F
2660:  BNZ   2668
2662:  MOVF   xDE,W
2664:  SUBLW  60
2666:  BC    2678
2668:  MOVF   xDF,F
266A:  BNZ   2678
266C:  MOVF   xDE,W
266E:  SUBLW  7A
2670:  BNC   2678
2672:  MOVF   xDE,W
2674:  ANDLW  DF
2676:  BRA    267A
2678:  MOVF   xDE,W
267A:  SUBLW  4E
267C:  BNZ   26E4
....................         { 
....................         idx = get_int(); 
267E:  MOVLB  0
2680:  CALL   12AE
2684:  MOVFF  01,1A8
....................         if (idx <2) 
2688:  MOVLB  1
268A:  MOVF   xA8,W
268C:  SUBLW  01
268E:  BNC   26A2
....................           { 
....................           if (idx) 
2690:  MOVF   xA8,F
2692:  BZ    269C
....................             { 
.................... 			output_high(PLL1_CE); 
2694:  BSF    F8B.1
....................             //pa_command  = 1; 
....................             on_command = 1; 
2696:  MOVLW  01
2698:  MOVWF  x70
....................             } 
269A:  BRA    26A0
....................           else 
....................             { 
.................... 			output_low(PLL1_CE); 
269C:  BCF    F8B.1
....................             //pa_command  = 0; 
....................             on_command = 0; 
269E:  CLRF   x70
....................             } 
.................... 			//allow_write = 2975;          ////yehuda save LD command into EEPROM when changed 
....................          //	write_setup(); 
....................           } 
26A0:  BRA    26E2
....................       else 
....................          COM1_send_str("\r\n$FAIL\r\n"); 
26A2:  MOVLW  01
26A4:  MOVWF  FEA
26A6:  MOVLW  CA
26A8:  MOVWF  FE9
26AA:  MOVFF  FF2,1DE
26AE:  BCF    FF2.7
26B0:  MOVLW  0A
26B2:  MOVWF  01
26B4:  CLRF   FF7
26B6:  MOVLW  00
26B8:  MOVLB  0
26BA:  CALL   0466
26BE:  TBLRD*-
26C0:  TBLRD*+
26C2:  MOVFF  FF5,FEE
26C6:  DECFSZ 01,F
26C8:  BRA    26C0
26CA:  MOVLB  1
26CC:  BTFSC  xDE.7
26CE:  BSF    FF2.7
26D0:  MOVLW  01
26D2:  MOVLB  2
26D4:  MOVWF  x6D
26D6:  MOVLW  CA
26D8:  MOVWF  x6C
26DA:  MOVLB  0
26DC:  CALL   0C18
26E0:  MOVLB  1
....................       } 
26E2:  BRA    2724
....................    else 
....................       COM1_send_str("\r\n$FAIL\r\n");          
26E4:  MOVLW  01
26E6:  MOVWF  FEA
26E8:  MOVLW  D4
26EA:  MOVWF  FE9
26EC:  MOVFF  FF2,1DE
26F0:  BCF    FF2.7
26F2:  MOVLW  0A
26F4:  MOVWF  01
26F6:  CLRF   FF7
26F8:  MOVLW  00
26FA:  MOVLB  0
26FC:  CALL   0466
2700:  TBLRD*-
2702:  TBLRD*+
2704:  MOVFF  FF5,FEE
2708:  DECFSZ 01,F
270A:  BRA    2702
270C:  MOVLB  1
270E:  BTFSC  xDE.7
2710:  BSF    FF2.7
2712:  MOVLW  01
2714:  MOVLB  2
2716:  MOVWF  x6D
2718:  MOVLW  D4
271A:  MOVWF  x6C
271C:  MOVLB  0
271E:  CALL   0C18
2722:  MOVLB  1
....................       break; 
2724:  MOVLB  0
2726:  GOTO   2FB6
....................  
.................... 	case 'T':							//command TR - return T in case of TX, return R in case of RX 
.................... 	  if (toupper(get_char()) == 'R') 
272A:  CALL   0FF6
272E:  MOVFF  02,1DF
2732:  MOVFF  01,1DE
2736:  MOVLB  1
2738:  MOVF   xDF,F
273A:  BNZ   2742
273C:  MOVF   xDE,W
273E:  SUBLW  60
2740:  BC    2752
2742:  MOVF   xDF,F
2744:  BNZ   2752
2746:  MOVF   xDE,W
2748:  SUBLW  7A
274A:  BNC   2752
274C:  MOVF   xDE,W
274E:  ANDLW  DF
2750:  BRA    2754
2752:  MOVF   xDE,W
2754:  SUBLW  52
2756:  BNZ   279A
.................... 		COM1_send_str("\r\n$T\r\n"); 
2758:  MOVLW  01
275A:  MOVWF  FEA
275C:  MOVLW  D4
275E:  MOVWF  FE9
2760:  MOVFF  FF2,1DE
2764:  BCF    FF2.7
2766:  MOVLW  07
2768:  MOVWF  01
276A:  CLRF   FF7
276C:  MOVLW  00
276E:  MOVLB  0
2770:  CALL   048A
2774:  TBLRD*-
2776:  TBLRD*+
2778:  MOVFF  FF5,FEE
277C:  DECFSZ 01,F
277E:  BRA    2776
2780:  MOVLB  1
2782:  BTFSC  xDE.7
2784:  BSF    FF2.7
2786:  MOVLW  01
2788:  MOVLB  2
278A:  MOVWF  x6D
278C:  MOVLW  D4
278E:  MOVWF  x6C
2790:  MOVLB  0
2792:  CALL   0C18
2796:  BRA    27D8
2798:  MOVLB  1
.................... 	  else 
.................... 		COM1_send_str("\r\n$FAIL\r\n"); 
279A:  MOVLW  01
279C:  MOVWF  FEA
279E:  MOVLW  D4
27A0:  MOVWF  FE9
27A2:  MOVFF  FF2,1DE
27A6:  BCF    FF2.7
27A8:  MOVLW  0A
27AA:  MOVWF  01
27AC:  CLRF   FF7
27AE:  MOVLW  00
27B0:  MOVLB  0
27B2:  CALL   0466
27B6:  TBLRD*-
27B8:  TBLRD*+
27BA:  MOVFF  FF5,FEE
27BE:  DECFSZ 01,F
27C0:  BRA    27B8
27C2:  MOVLB  1
27C4:  BTFSC  xDE.7
27C6:  BSF    FF2.7
27C8:  MOVLW  01
27CA:  MOVLB  2
27CC:  MOVWF  x6D
27CE:  MOVLW  D4
27D0:  MOVWF  x6C
27D2:  MOVLB  0
27D4:  CALL   0C18
.................... 		break; 
27D8:  GOTO   2FB6
.................... 		 
....................  
....................  
....................     case 'B': 
....................       if (toupper(get_char()) == 'M') 
27DC:  CALL   0FF6
27E0:  MOVFF  02,1DF
27E4:  MOVFF  01,1DE
27E8:  MOVLB  1
27EA:  MOVF   xDF,F
27EC:  BNZ   27F4
27EE:  MOVF   xDE,W
27F0:  SUBLW  60
27F2:  BC    2804
27F4:  MOVF   xDF,F
27F6:  BNZ   2804
27F8:  MOVF   xDE,W
27FA:  SUBLW  7A
27FC:  BNC   2804
27FE:  MOVF   xDE,W
2800:  ANDLW  DF
2802:  BRA    2806
2804:  MOVF   xDE,W
2806:  SUBLW  4D
2808:  BNZ   2884
....................         { 
....................         idx = get_int(); 
280A:  MOVLB  0
280C:  CALL   12AE
2810:  MOVFF  01,1A8
....................         if (idx <2) 
2814:  MOVLB  1
2816:  MOVF   xA8,W
2818:  SUBLW  01
281A:  BNC   2842
....................           { 
....................           if (idx) 
281C:  MOVF   xA8,F
281E:  BZ    2838
....................             { 
....................             bit_mode = 1; 
2820:  MOVLW  01
2822:  MOVWF  x71
.................... 			output_high(BIT_MODE_EN); 
2824:  BSF    F8B.4
.................... 			fprintf(UART_CPLD,"$ON"); 
2826:  MOVLW  70
2828:  MOVWF  FF6
282A:  MOVLW  06
282C:  MOVWF  FF7
282E:  MOVLB  0
2830:  CALL   146A
....................             } 
2834:  BRA    283E
2836:  MOVLB  1
....................           else 
....................             { 
....................             bit_mode = 0; 
2838:  CLRF   x71
.................... 			output_low(BIT_MODE_EN); 
283A:  BCF    F8B.4
283C:  MOVLB  0
....................             } 
....................           } 
283E:  BRA    2880
2840:  MOVLB  1
....................       else 
....................          COM1_send_str("\r\n$FAIL\r\n"); 
2842:  MOVLW  01
2844:  MOVWF  FEA
2846:  MOVLW  D4
2848:  MOVWF  FE9
284A:  MOVFF  FF2,1DE
284E:  BCF    FF2.7
2850:  MOVLW  0A
2852:  MOVWF  01
2854:  CLRF   FF7
2856:  MOVLW  00
2858:  MOVLB  0
285A:  CALL   0466
285E:  TBLRD*-
2860:  TBLRD*+
2862:  MOVFF  FF5,FEE
2866:  DECFSZ 01,F
2868:  BRA    2860
286A:  MOVLB  1
286C:  BTFSC  xDE.7
286E:  BSF    FF2.7
2870:  MOVLW  01
2872:  MOVLB  2
2874:  MOVWF  x6D
2876:  MOVLW  D4
2878:  MOVWF  x6C
287A:  MOVLB  0
287C:  CALL   0C18
....................       } 
2880:  BRA    28C2
2882:  MOVLB  1
....................    else 
....................       COM1_send_str("\r\n$FAIL\r\n");          
2884:  MOVLW  01
2886:  MOVWF  FEA
2888:  MOVLW  D4
288A:  MOVWF  FE9
288C:  MOVFF  FF2,1DE
2890:  BCF    FF2.7
2892:  MOVLW  0A
2894:  MOVWF  01
2896:  CLRF   FF7
2898:  MOVLW  00
289A:  MOVLB  0
289C:  CALL   0466
28A0:  TBLRD*-
28A2:  TBLRD*+
28A4:  MOVFF  FF5,FEE
28A8:  DECFSZ 01,F
28AA:  BRA    28A2
28AC:  MOVLB  1
28AE:  BTFSC  xDE.7
28B0:  BSF    FF2.7
28B2:  MOVLW  01
28B4:  MOVLB  2
28B6:  MOVWF  x6D
28B8:  MOVLW  D4
28BA:  MOVWF  x6C
28BC:  MOVLB  0
28BE:  CALL   0C18
....................       break; 
28C2:  BRA    2FB6
....................  
....................  
....................     case 'P': 
....................       if (toupper(peek_char()) == 'S') // $PS command 
28C4:  CALL   123C
28C8:  MOVFF  02,1DF
28CC:  MOVFF  01,1DE
28D0:  MOVLB  1
28D2:  MOVF   xDF,F
28D4:  BNZ   28DC
28D6:  MOVF   xDE,W
28D8:  SUBLW  60
28DA:  BC    28EC
28DC:  MOVF   xDF,F
28DE:  BNZ   28EC
28E0:  MOVF   xDE,W
28E2:  SUBLW  7A
28E4:  BNC   28EC
28E6:  MOVF   xDE,W
28E8:  ANDLW  DF
28EA:  BRA    28EE
28EC:  MOVF   xDE,W
28EE:  SUBLW  53
28F0:  BNZ   296C
....................         { 
....................         get_char(); // get rid of 'S' 
28F2:  MOVLB  0
28F4:  CALL   0FF6
....................         idx = get_int(); 
28F8:  CALL   12AE
28FC:  MOVFF  01,1A8
....................               if (idx <2) 
2900:  MOVLB  1
2902:  MOVF   xA8,W
2904:  SUBLW  01
2906:  BNC   292A
....................                { 
....................                 if (idx) 
2908:  MOVF   xA8,F
290A:  BZ    2912
....................                    { 
....................                    pa_command  = 1; 
290C:  MOVLW  01
290E:  MOVWF  x6F
.................... 				   //output_high(PLL1_CE);			//keep PLL CE constant HIGH 
....................                    } 
2910:  BRA    2914
....................                  else 
....................                     { 
....................                  	pa_command  = 0; 
2912:  CLRF   x6F
.................... 				    //output_low(PLL1_CE);			//keep PLL CE constant HIGH 
....................                     } 
.................... 				 
.................... 					setup.power_amp = pa_command;  //yehuda add this line too 
2914:  MOVFF  16F,11C
.................... 					allow_write = 2975;          ////yehuda save LD command into EEPROM when changed 
2918:  MOVLW  0B
291A:  MOVWF  x64
291C:  MOVLW  9F
291E:  MOVWF  x63
....................          			write_setup(); 
2920:  MOVLB  0
2922:  CALL   13F6
....................                  } 
2926:  BRA    2968
2928:  MOVLB  1
....................          		 else   
....................             		COM1_send_str("\r\n$FAIL\r\n");                
292A:  MOVLW  01
292C:  MOVWF  FEA
292E:  MOVLW  D4
2930:  MOVWF  FE9
2932:  MOVFF  FF2,1DE
2936:  BCF    FF2.7
2938:  MOVLW  0A
293A:  MOVWF  01
293C:  CLRF   FF7
293E:  MOVLW  00
2940:  MOVLB  0
2942:  CALL   0466
2946:  TBLRD*-
2948:  TBLRD*+
294A:  MOVFF  FF5,FEE
294E:  DECFSZ 01,F
2950:  BRA    2948
2952:  MOVLB  1
2954:  BTFSC  xDE.7
2956:  BSF    FF2.7
2958:  MOVLW  01
295A:  MOVLB  2
295C:  MOVWF  x6D
295E:  MOVLW  D4
2960:  MOVWF  x6C
2962:  MOVLB  0
2964:  CALL   0C18
....................          } 
2968:  BRA    2972
296A:  MOVLB  1
....................          else 										// $P command, set setup.power_level 
....................             set_power_level(); 
296C:  MOVLB  0
296E:  GOTO   148A
.................... 			allow_write = 2975;          			////yehuda save LD command into EEPROM when changed 
2972:  MOVLW  0B
2974:  MOVLB  1
2976:  MOVWF  x64
2978:  MOVLW  9F
297A:  MOVWF  x63
....................          	write_setup(); 
297C:  MOVLB  0
297E:  CALL   13F6
....................          break; 
2982:  BRA    2FB6
....................  
....................     case 'L': 
....................       if (toupper(get_char()) == 'D') 
2984:  CALL   0FF6
2988:  MOVFF  02,1DF
298C:  MOVFF  01,1DE
2990:  MOVLB  1
2992:  MOVF   xDF,F
2994:  BNZ   299C
2996:  MOVF   xDE,W
2998:  SUBLW  60
299A:  BC    29AC
299C:  MOVF   xDF,F
299E:  BNZ   29AC
29A0:  MOVF   xDE,W
29A2:  SUBLW  7A
29A4:  BNC   29AC
29A6:  MOVF   xDE,W
29A8:  ANDLW  DF
29AA:  BRA    29AE
29AC:  MOVF   xDE,W
29AE:  SUBLW  44
29B0:  BNZ   2A28
....................         { 
....................         idx = get_int(); 
29B2:  MOVLB  0
29B4:  CALL   12AE
29B8:  MOVFF  01,1A8
....................         if (idx <2) 
29BC:  MOVLB  1
29BE:  MOVF   xA8,W
29C0:  SUBLW  01
29C2:  BNC   29E6
....................         { 
....................           if (idx) 
29C4:  MOVF   xA8,F
29C6:  BZ    29D0
....................             { 
....................             setup.meter_backlight = 1; 
29C8:  MOVLW  01
29CA:  MOVWF  x5D
....................             output_high(MET_EN); 
29CC:  BSF    F8A.2
....................             } 
29CE:  BRA    29D4
....................           else 
....................             { 
....................             setup.meter_backlight = 0; 
29D0:  CLRF   x5D
....................             output_low(MET_EN); 
29D2:  BCF    F8A.2
....................             } 
.................... 			allow_write = 2975;          ////yehuda save LD command into EEPROM when changed 
29D4:  MOVLW  0B
29D6:  MOVWF  x64
29D8:  MOVLW  9F
29DA:  MOVWF  x63
....................          	write_setup(); 
29DC:  MOVLB  0
29DE:  CALL   13F6
....................          } 
29E2:  BRA    2A24
29E4:  MOVLB  1
....................    else 
....................          COM1_send_str("\r\n$FAIL\r\n"); 
29E6:  MOVLW  01
29E8:  MOVWF  FEA
29EA:  MOVLW  D4
29EC:  MOVWF  FE9
29EE:  MOVFF  FF2,1DE
29F2:  BCF    FF2.7
29F4:  MOVLW  0A
29F6:  MOVWF  01
29F8:  CLRF   FF7
29FA:  MOVLW  00
29FC:  MOVLB  0
29FE:  CALL   0466
2A02:  TBLRD*-
2A04:  TBLRD*+
2A06:  MOVFF  FF5,FEE
2A0A:  DECFSZ 01,F
2A0C:  BRA    2A04
2A0E:  MOVLB  1
2A10:  BTFSC  xDE.7
2A12:  BSF    FF2.7
2A14:  MOVLW  01
2A16:  MOVLB  2
2A18:  MOVWF  x6D
2A1A:  MOVLW  D4
2A1C:  MOVWF  x6C
2A1E:  MOVLB  0
2A20:  CALL   0C18
....................         } 
2A24:  BRA    2A66
2A26:  MOVLB  1
....................    else 
....................       COM1_send_str("\r\n$FAIL\r\n"); 
2A28:  MOVLW  01
2A2A:  MOVWF  FEA
2A2C:  MOVLW  D4
2A2E:  MOVWF  FE9
2A30:  MOVFF  FF2,1DE
2A34:  BCF    FF2.7
2A36:  MOVLW  0A
2A38:  MOVWF  01
2A3A:  CLRF   FF7
2A3C:  MOVLW  00
2A3E:  MOVLB  0
2A40:  CALL   0466
2A44:  TBLRD*-
2A46:  TBLRD*+
2A48:  MOVFF  FF5,FEE
2A4C:  DECFSZ 01,F
2A4E:  BRA    2A46
2A50:  MOVLB  1
2A52:  BTFSC  xDE.7
2A54:  BSF    FF2.7
2A56:  MOVLW  01
2A58:  MOVLB  2
2A5A:  MOVWF  x6D
2A5C:  MOVLW  D4
2A5E:  MOVWF  x6C
2A60:  MOVLB  0
2A62:  CALL   0C18
....................       break; 
2A66:  BRA    2FB6
....................  
....................  
....................  
....................    case 'C': 
.................... 	{ 
.................... 		idx = get_int(); 
2A68:  CALL   12AE
2A6C:  MOVFF  01,1A8
.................... 		if(idx == 0) 
2A70:  MOVLB  1
2A72:  MOVF   xA8,F
2A74:  BNZ   2AB6
.................... 		{ 
.................... 			set_AD5312(2, 0); 
2A76:  MOVLW  02
2A78:  MOVWF  xDE
2A7A:  CLRF   xE0
2A7C:  CLRF   xDF
2A7E:  MOVLB  0
2A80:  CALL   0CAC
.................... 			set_AD5312(6, 0); 
2A84:  MOVLW  06
2A86:  MOVLB  1
2A88:  MOVWF  xDE
2A8A:  CLRF   xE0
2A8C:  CLRF   xDF
2A8E:  MOVLB  0
2A90:  CALL   0CAC
.................... 			set_AD5312(10, 0); 
2A94:  MOVLW  0A
2A96:  MOVLB  1
2A98:  MOVWF  xDE
2A9A:  CLRF   xE0
2A9C:  CLRF   xDF
2A9E:  MOVLB  0
2AA0:  CALL   0CAC
.................... 			set_AD5312(14, 0); 
2AA4:  MOVLW  0E
2AA6:  MOVLB  1
2AA8:  MOVWF  xDE
2AAA:  CLRF   xE0
2AAC:  CLRF   xDF
2AAE:  MOVLB  0
2AB0:  CALL   0CAC
2AB4:  MOVLB  1
.................... 		} 
.................... 		if(idx == 1) 
2AB6:  DECFSZ xA8,W
2AB8:  BRA    2ADE
.................... 		{ 
.................... 			dac_val = get_int(); 
2ABA:  MOVLB  0
2ABC:  CALL   12AE
2AC0:  MOVFF  02,1B5
2AC4:  MOVFF  01,1B4
.................... 			set_AD5312(2, dac_val); 
2AC8:  MOVLW  02
2ACA:  MOVLB  1
2ACC:  MOVWF  xDE
2ACE:  MOVFF  1B5,1E0
2AD2:  MOVFF  1B4,1DF
2AD6:  MOVLB  0
2AD8:  CALL   0CAC
2ADC:  MOVLB  1
.................... 		} 
.................... 		if(idx == 2) 
2ADE:  MOVF   xA8,W
2AE0:  SUBLW  02
2AE2:  BNZ   2B08
.................... 		{ 
.................... 			dac_val = get_int(); 
2AE4:  MOVLB  0
2AE6:  CALL   12AE
2AEA:  MOVFF  02,1B5
2AEE:  MOVFF  01,1B4
.................... 			set_AD5312(6, dac_val); 
2AF2:  MOVLW  06
2AF4:  MOVLB  1
2AF6:  MOVWF  xDE
2AF8:  MOVFF  1B5,1E0
2AFC:  MOVFF  1B4,1DF
2B00:  MOVLB  0
2B02:  CALL   0CAC
2B06:  MOVLB  1
.................... 		} 
.................... 		if(idx == 3) 
2B08:  MOVF   xA8,W
2B0A:  SUBLW  03
2B0C:  BNZ   2B32
.................... 		{ 
.................... 			dac_val = get_int(); 
2B0E:  MOVLB  0
2B10:  CALL   12AE
2B14:  MOVFF  02,1B5
2B18:  MOVFF  01,1B4
.................... 			set_AD5312(10, dac_val); 
2B1C:  MOVLW  0A
2B1E:  MOVLB  1
2B20:  MOVWF  xDE
2B22:  MOVFF  1B5,1E0
2B26:  MOVFF  1B4,1DF
2B2A:  MOVLB  0
2B2C:  CALL   0CAC
2B30:  MOVLB  1
.................... 		} 
.................... 		if(idx == 4) 
2B32:  MOVF   xA8,W
2B34:  SUBLW  04
2B36:  BNZ   2B5C
.................... 		{ 
.................... 			dac_val = get_int(); 
2B38:  MOVLB  0
2B3A:  CALL   12AE
2B3E:  MOVFF  02,1B5
2B42:  MOVFF  01,1B4
.................... 			set_AD5312(14, dac_val); 
2B46:  MOVLW  0E
2B48:  MOVLB  1
2B4A:  MOVWF  xDE
2B4C:  MOVFF  1B5,1E0
2B50:  MOVFF  1B4,1DF
2B54:  MOVLB  0
2B56:  CALL   0CAC
2B5A:  MOVLB  1
.................... 		} 
.................... 		if(idx == 5) 
2B5C:  MOVF   xA8,W
2B5E:  SUBLW  05
2B60:  BNZ   2BAA
.................... 		{ 
.................... 			set_AD5312(2, 210); 
2B62:  MOVLW  02
2B64:  MOVWF  xDE
2B66:  CLRF   xE0
2B68:  MOVLW  D2
2B6A:  MOVWF  xDF
2B6C:  MOVLB  0
2B6E:  CALL   0CAC
.................... 			set_AD5312(6, 210); 
2B72:  MOVLW  06
2B74:  MOVLB  1
2B76:  MOVWF  xDE
2B78:  CLRF   xE0
2B7A:  MOVLW  D2
2B7C:  MOVWF  xDF
2B7E:  MOVLB  0
2B80:  CALL   0CAC
.................... 			set_AD5312(10, 210); 
2B84:  MOVLW  0A
2B86:  MOVLB  1
2B88:  MOVWF  xDE
2B8A:  CLRF   xE0
2B8C:  MOVLW  D2
2B8E:  MOVWF  xDF
2B90:  MOVLB  0
2B92:  CALL   0CAC
.................... 			set_AD5312(14, 210); 
2B96:  MOVLW  0E
2B98:  MOVLB  1
2B9A:  MOVWF  xDE
2B9C:  CLRF   xE0
2B9E:  MOVLW  D2
2BA0:  MOVWF  xDF
2BA2:  MOVLB  0
2BA4:  CALL   0CAC
2BA8:  MOVLB  1
.................... 		} 
.................... 		if(idx == 6) 
2BAA:  MOVF   xA8,W
2BAC:  SUBLW  06
2BAE:  BNZ   2C00
.................... 		{ 
.................... 			set_AD5312(2, 420); 
2BB0:  MOVLW  02
2BB2:  MOVWF  xDE
2BB4:  MOVLW  01
2BB6:  MOVWF  xE0
2BB8:  MOVLW  A4
2BBA:  MOVWF  xDF
2BBC:  MOVLB  0
2BBE:  CALL   0CAC
.................... 			set_AD5312(6, 420); 
2BC2:  MOVLW  06
2BC4:  MOVLB  1
2BC6:  MOVWF  xDE
2BC8:  MOVLW  01
2BCA:  MOVWF  xE0
2BCC:  MOVLW  A4
2BCE:  MOVWF  xDF
2BD0:  MOVLB  0
2BD2:  CALL   0CAC
.................... 			set_AD5312(10, 420); 
2BD6:  MOVLW  0A
2BD8:  MOVLB  1
2BDA:  MOVWF  xDE
2BDC:  MOVLW  01
2BDE:  MOVWF  xE0
2BE0:  MOVLW  A4
2BE2:  MOVWF  xDF
2BE4:  MOVLB  0
2BE6:  CALL   0CAC
.................... 			set_AD5312(14, 420); 
2BEA:  MOVLW  0E
2BEC:  MOVLB  1
2BEE:  MOVWF  xDE
2BF0:  MOVLW  01
2BF2:  MOVWF  xE0
2BF4:  MOVLW  A4
2BF6:  MOVWF  xDF
2BF8:  MOVLB  0
2BFA:  CALL   0CAC
2BFE:  MOVLB  1
.................... 		} 
.................... 		if(idx == 7) 
2C00:  MOVF   xA8,W
2C02:  SUBLW  07
2C04:  BNZ   2C54
.................... 		{ 
.................... 			set_AD5312(2, 630); 
2C06:  MOVLW  02
2C08:  MOVWF  xDE
2C0A:  MOVWF  xE0
2C0C:  MOVLW  76
2C0E:  MOVWF  xDF
2C10:  MOVLB  0
2C12:  CALL   0CAC
.................... 			set_AD5312(6, 630); 
2C16:  MOVLW  06
2C18:  MOVLB  1
2C1A:  MOVWF  xDE
2C1C:  MOVLW  02
2C1E:  MOVWF  xE0
2C20:  MOVLW  76
2C22:  MOVWF  xDF
2C24:  MOVLB  0
2C26:  CALL   0CAC
.................... 			set_AD5312(10, 630); 
2C2A:  MOVLW  0A
2C2C:  MOVLB  1
2C2E:  MOVWF  xDE
2C30:  MOVLW  02
2C32:  MOVWF  xE0
2C34:  MOVLW  76
2C36:  MOVWF  xDF
2C38:  MOVLB  0
2C3A:  CALL   0CAC
.................... 			set_AD5312(14, 630); 
2C3E:  MOVLW  0E
2C40:  MOVLB  1
2C42:  MOVWF  xDE
2C44:  MOVLW  02
2C46:  MOVWF  xE0
2C48:  MOVLW  76
2C4A:  MOVWF  xDF
2C4C:  MOVLB  0
2C4E:  CALL   0CAC
2C52:  MOVLB  1
2C54:  MOVLB  0
.................... 		} 
.................... 	} 
....................  
....................  
....................  
....................  
....................  
....................  
....................     /*  case 'M': 
.................... 		addr = get_int(); 
.................... 			if(addr) 
.................... 				{ 
.................... 				meter1(); 
.................... 				} 
.................... 				else 
.................... 					meter2(); 
....................             break;*/ 
....................  
....................     case 'S': // set tables 
....................       skip_spc(); 
2C56:  CALL   11F4
....................       idx = get_char(); // get table designator 
2C5A:  CALL   0FF6
2C5E:  MOVFF  01,1A8
....................       addr = get_int(); // get table index 
2C62:  CALL   12AE
2C66:  MOVFF  01,1A9
....................       value = get_int(); // get value to put into table 
2C6A:  CALL   12AE
2C6E:  MOVFF  02,1AF
2C72:  MOVFF  01,1AE
....................       switch (toupper(idx)) 
2C76:  MOVLB  1
2C78:  MOVF   xA8,W
2C7A:  SUBLW  60
2C7C:  BC    2C8A
2C7E:  MOVF   xA8,W
2C80:  SUBLW  7A
2C82:  BNC   2C8A
2C84:  MOVF   xA8,W
2C86:  ANDLW  DF
2C88:  BRA    2C8C
2C8A:  MOVF   xA8,W
2C8C:  XORLW  4E
2C8E:  MOVLB  0
2C90:  BZ    2CA8
2C92:  XORLW  1E
2C94:  BZ    2D10
2C96:  XORLW  02
2C98:  BZ    2D78
2C9A:  XORLW  14
2C9C:  BTFSC  FD8.2
2C9E:  BRA    2DF4
2CA0:  XORLW  10
2CA2:  BTFSC  FD8.2
2CA4:  BRA    2EA2
2CA6:  BRA    2EB6
....................         { 
....................         case 'N': // negative voltage 
....................           if (addr < 2) 
2CA8:  MOVLB  1
2CAA:  MOVF   xA9,W
2CAC:  SUBLW  01
2CAE:  BNC   2CCC
....................          { 
....................             setup.negative_voltage[addr] = value; 
2CB0:  BCF    FD8.0
2CB2:  RLCF   xA9,W
2CB4:  CLRF   03
2CB6:  ADDLW  21
2CB8:  MOVWF  FE9
2CBA:  MOVLW  01
2CBC:  ADDWFC 03,W
2CBE:  MOVWF  FEA
2CC0:  MOVFF  1AF,FEC
2CC4:  MOVF   FED,F
2CC6:  MOVFF  1AE,FEF
....................          } 
2CCA:  BRA    2D0C
....................             else 
....................                  COM1_send_str("\r\n$FAIL\r\n"); 
2CCC:  MOVLW  01
2CCE:  MOVWF  FEA
2CD0:  MOVLW  D4
2CD2:  MOVWF  FE9
2CD4:  MOVFF  FF2,1DE
2CD8:  BCF    FF2.7
2CDA:  MOVLW  0A
2CDC:  MOVWF  01
2CDE:  CLRF   FF7
2CE0:  MOVLW  00
2CE2:  MOVLB  0
2CE4:  CALL   0466
2CE8:  TBLRD*-
2CEA:  TBLRD*+
2CEC:  MOVFF  FF5,FEE
2CF0:  DECFSZ 01,F
2CF2:  BRA    2CEA
2CF4:  MOVLB  1
2CF6:  BTFSC  xDE.7
2CF8:  BSF    FF2.7
2CFA:  MOVLW  01
2CFC:  MOVLB  2
2CFE:  MOVWF  x6D
2D00:  MOVLW  D4
2D02:  MOVWF  x6C
2D04:  MOVLB  0
2D06:  CALL   0C18
2D0A:  MOVLB  1
....................           break; 
2D0C:  MOVLB  0
2D0E:  BRA    2EB6
....................  
....................         case 'P': // positive voltage 
....................              if (addr <4) 
2D10:  MOVLB  1
2D12:  MOVF   xA9,W
2D14:  SUBLW  03
2D16:  BNC   2D34
....................               { 
....................               setup.power_in[addr] = value; 
2D18:  BCF    FD8.0
2D1A:  RLCF   xA9,W
2D1C:  CLRF   03
2D1E:  ADDLW  27
2D20:  MOVWF  FE9
2D22:  MOVLW  01
2D24:  ADDWFC 03,W
2D26:  MOVWF  FEA
2D28:  MOVFF  1AF,FEC
2D2C:  MOVF   FED,F
2D2E:  MOVFF  1AE,FEF
....................               } 
2D32:  BRA    2D74
....................            else 
....................               COM1_send_str("\r\n$FAIL\r\n"); 
2D34:  MOVLW  01
2D36:  MOVWF  FEA
2D38:  MOVLW  D4
2D3A:  MOVWF  FE9
2D3C:  MOVFF  FF2,1DE
2D40:  BCF    FF2.7
2D42:  MOVLW  0A
2D44:  MOVWF  01
2D46:  CLRF   FF7
2D48:  MOVLW  00
2D4A:  MOVLB  0
2D4C:  CALL   0466
2D50:  TBLRD*-
2D52:  TBLRD*+
2D54:  MOVFF  FF5,FEE
2D58:  DECFSZ 01,F
2D5A:  BRA    2D52
2D5C:  MOVLB  1
2D5E:  BTFSC  xDE.7
2D60:  BSF    FF2.7
2D62:  MOVLW  01
2D64:  MOVLB  2
2D66:  MOVWF  x6D
2D68:  MOVLW  D4
2D6A:  MOVWF  x6C
2D6C:  MOVLB  0
2D6E:  CALL   0C18
2D72:  MOVLB  1
....................           break; 
2D74:  MOVLB  0
2D76:  BRA    2EB6
....................  
....................         case 'R': // rev table 
....................          if (toupper(get_char()) == 'R') 
2D78:  CALL   0FF6
2D7C:  MOVFF  02,1DF
2D80:  MOVFF  01,1DE
2D84:  MOVLB  1
2D86:  MOVF   xDF,F
2D88:  BNZ   2D90
2D8A:  MOVF   xDE,W
2D8C:  SUBLW  60
2D8E:  BC    2DA0
2D90:  MOVF   xDF,F
2D92:  BNZ   2DA0
2D94:  MOVF   xDE,W
2D96:  SUBLW  7A
2D98:  BNC   2DA0
2D9A:  MOVF   xDE,W
2D9C:  ANDLW  DF
2D9E:  BRA    2DA2
2DA0:  MOVF   xDE,W
2DA2:  SUBLW  52
2DA4:  BNZ   2DB0
....................          { 
....................             setup.reverse = value; 
2DA6:  MOVFF  1AF,15C
2DAA:  MOVFF  1AE,15B
....................          } 
2DAE:  BRA    2DF0
....................          else 
....................             COM1_send_str("\r\n$FAIL\r\n"); 
2DB0:  MOVLW  01
2DB2:  MOVWF  FEA
2DB4:  MOVLW  D4
2DB6:  MOVWF  FE9
2DB8:  MOVFF  FF2,1DE
2DBC:  BCF    FF2.7
2DBE:  MOVLW  0A
2DC0:  MOVWF  01
2DC2:  CLRF   FF7
2DC4:  MOVLW  00
2DC6:  MOVLB  0
2DC8:  CALL   0466
2DCC:  TBLRD*-
2DCE:  TBLRD*+
2DD0:  MOVFF  FF5,FEE
2DD4:  DECFSZ 01,F
2DD6:  BRA    2DCE
2DD8:  MOVLB  1
2DDA:  BTFSC  xDE.7
2DDC:  BSF    FF2.7
2DDE:  MOVLW  01
2DE0:  MOVLB  2
2DE2:  MOVWF  x6D
2DE4:  MOVLW  D4
2DE6:  MOVWF  x6C
2DE8:  MOVLB  0
2DEA:  CALL   0C18
2DEE:  MOVLB  1
....................           break; 
2DF0:  MOVLB  0
2DF2:  BRA    2EB6
....................  
....................   
....................  
....................  
....................       
....................    case 'F': // forward table 
....................           if (addr < 12) 
2DF4:  MOVLB  1
2DF6:  MOVF   xA9,W
2DF8:  SUBLW  0B
2DFA:  BNC   2E5E
....................             { 
....................             setup.fwd_table[addr][0] = value; 
2DFC:  MOVF   xA9,W
2DFE:  MULLW  04
2E00:  MOVF   FF3,W
2E02:  CLRF   03
2E04:  ADDLW  2F
2E06:  MOVWF  FE9
2E08:  MOVLW  01
2E0A:  ADDWFC 03,W
2E0C:  MOVWF  FEA
2E0E:  MOVFF  1AF,FEC
2E12:  MOVF   FED,F
2E14:  MOVFF  1AE,FEF
....................             value = get_int(); 
2E18:  MOVLB  0
2E1A:  CALL   12AE
2E1E:  MOVFF  02,1AF
2E22:  MOVFF  01,1AE
....................             setup.fwd_table[addr][1] = value; 
2E26:  MOVLB  1
2E28:  MOVF   xA9,W
2E2A:  MULLW  04
2E2C:  MOVF   FF3,W
2E2E:  CLRF   03
2E30:  ADDLW  13
2E32:  MOVWF  xDE
2E34:  MOVLW  00
2E36:  ADDWFC 03,W
2E38:  MOVWF  xDF
2E3A:  MOVLW  02
2E3C:  ADDWF  xDE,W
2E3E:  MOVWF  01
2E40:  MOVLW  00
2E42:  ADDWFC xDF,W
2E44:  MOVWF  03
2E46:  MOVF   01,W
2E48:  ADDLW  1C
2E4A:  MOVWF  FE9
2E4C:  MOVLW  01
2E4E:  ADDWFC 03,W
2E50:  MOVWF  FEA
2E52:  MOVFF  1AF,FEC
2E56:  MOVF   FED,F
2E58:  MOVFF  1AE,FEF
....................             } 
2E5C:  BRA    2E9E
....................              else 
....................                  COM1_send_str("\r\n$FAIL\r\n"); 
2E5E:  MOVLW  01
2E60:  MOVWF  FEA
2E62:  MOVLW  D4
2E64:  MOVWF  FE9
2E66:  MOVFF  FF2,1DE
2E6A:  BCF    FF2.7
2E6C:  MOVLW  0A
2E6E:  MOVWF  01
2E70:  CLRF   FF7
2E72:  MOVLW  00
2E74:  MOVLB  0
2E76:  CALL   0466
2E7A:  TBLRD*-
2E7C:  TBLRD*+
2E7E:  MOVFF  FF5,FEE
2E82:  DECFSZ 01,F
2E84:  BRA    2E7C
2E86:  MOVLB  1
2E88:  BTFSC  xDE.7
2E8A:  BSF    FF2.7
2E8C:  MOVLW  01
2E8E:  MOVLB  2
2E90:  MOVWF  x6D
2E92:  MOVLW  D4
2E94:  MOVWF  x6C
2E96:  MOVLB  0
2E98:  CALL   0C18
2E9C:  MOVLB  1
....................           break; 
2E9E:  MOVLB  0
2EA0:  BRA    2EB6
....................  
....................         case 'V': // save parameters 
....................           allow_write = 2975; 
2EA2:  MOVLW  0B
2EA4:  MOVLB  1
2EA6:  MOVWF  x64
2EA8:  MOVLW  9F
2EAA:  MOVWF  x63
....................           write_setup(); 
2EAC:  MOVLB  0
2EAE:  CALL   13F6
....................           update_all(); 
2EB2:  CALL   0BDE
....................           break; 
....................         } 
....................       break; 
2EB6:  BRA    2FB6
....................  
....................     case '1': // year    
....................       year = get_int(); 
2EB8:  CALL   12AE
2EBC:  MOVFF  02,1B1
2EC0:  MOVFF  01,1B0
....................        if(year > 0 && year < 100)  
2EC4:  MOVLB  1
2EC6:  MOVF   xB0,F
2EC8:  BNZ   2ECE
2ECA:  MOVF   xB1,F
2ECC:  BZ    2EE2
2ECE:  MOVF   xB1,F
2ED0:  BNZ   2EE2
2ED2:  MOVF   xB0,W
2ED4:  SUBLW  63
2ED6:  BNC   2EE2
....................          { 
....................       setup.year = year; 
2ED8:  MOVFF  1B1,15F
2EDC:  MOVFF  1B0,15E
....................       } 
2EE0:  BRA    2F22
....................    else 
....................       COM1_send_str("\r\n$FAIL\r\n"); 
2EE2:  MOVLW  01
2EE4:  MOVWF  FEA
2EE6:  MOVLW  D4
2EE8:  MOVWF  FE9
2EEA:  MOVFF  FF2,1DE
2EEE:  BCF    FF2.7
2EF0:  MOVLW  0A
2EF2:  MOVWF  01
2EF4:  CLRF   FF7
2EF6:  MOVLW  00
2EF8:  MOVLB  0
2EFA:  CALL   0466
2EFE:  TBLRD*-
2F00:  TBLRD*+
2F02:  MOVFF  FF5,FEE
2F06:  DECFSZ 01,F
2F08:  BRA    2F00
2F0A:  MOVLB  1
2F0C:  BTFSC  xDE.7
2F0E:  BSF    FF2.7
2F10:  MOVLW  01
2F12:  MOVLB  2
2F14:  MOVWF  x6D
2F16:  MOVLW  D4
2F18:  MOVWF  x6C
2F1A:  MOVLB  0
2F1C:  CALL   0C18
2F20:  MOVLB  1
....................     break; 
2F22:  MOVLB  0
2F24:  BRA    2FB6
....................  
....................     case '2': // week 
....................       week = get_int(); 
2F26:  CALL   12AE
2F2A:  MOVFF  02,1B3
2F2E:  MOVFF  01,1B2
....................       if(week > 0 && week < 58)  
2F32:  MOVLB  1
2F34:  MOVF   xB2,F
2F36:  BNZ   2F3C
2F38:  MOVF   xB3,F
2F3A:  BZ    2F4C
2F3C:  MOVF   xB3,F
2F3E:  BNZ   2F4C
2F40:  MOVF   xB2,W
2F42:  SUBLW  39
2F44:  BNC   2F4C
....................       { 
....................       setup.week = week; 
2F46:  MOVFF  1B2,160
....................       }   
2F4A:  BRA    2F8C
....................    else 
....................       COM1_send_str("\r\n$FAIL\r\n"); 
2F4C:  MOVLW  01
2F4E:  MOVWF  FEA
2F50:  MOVLW  D4
2F52:  MOVWF  FE9
2F54:  MOVFF  FF2,1DE
2F58:  BCF    FF2.7
2F5A:  MOVLW  0A
2F5C:  MOVWF  01
2F5E:  CLRF   FF7
2F60:  MOVLW  00
2F62:  MOVLB  0
2F64:  CALL   0466
2F68:  TBLRD*-
2F6A:  TBLRD*+
2F6C:  MOVFF  FF5,FEE
2F70:  DECFSZ 01,F
2F72:  BRA    2F6A
2F74:  MOVLB  1
2F76:  BTFSC  xDE.7
2F78:  BSF    FF2.7
2F7A:  MOVLW  01
2F7C:  MOVLB  2
2F7E:  MOVWF  x6D
2F80:  MOVLW  D4
2F82:  MOVWF  x6C
2F84:  MOVLB  0
2F86:  CALL   0C18
2F8A:  MOVLB  1
....................    break; 
2F8C:  MOVLB  0
2F8E:  BRA    2FB6
....................     case '3': // unit ID 
....................       setup.unit_ID = get_int(); 
2F90:  CALL   12AE
2F94:  MOVFF  02,162
2F98:  MOVFF  01,161
....................       break; 
2F9C:  BRA    2FB6
....................     case 'Q': 
....................       send_status(); 
2F9E:  GOTO   1DA4
....................       break; 
2FA2:  BRA    2FB6
....................     default: 
....................       printf("\r\n$FAIL\r\n"); 
2FA4:  MOVLW  74
2FA6:  MOVWF  FF6
2FA8:  MOVLW  06
2FAA:  MOVWF  FF7
2FAC:  CALL   146A
....................  
....................       return 0; 
2FB0:  MOVLW  00
2FB2:  MOVWF  01
2FB4:  BRA    2FBA
....................     } 
....................   return 0; 
2FB6:  MOVLW  00
2FB8:  MOVWF  01
2FBA:  GOTO   308A (RETURN)
....................   } 
....................  
.................... //---------------------------------------------------------------------------- 
.................... void dollar_handler(void) 
....................   { 
....................   UINT chr, ret; 
....................  
....................   switch (comm_state) 
2FBE:  MOVF   51,W
2FC0:  ADDLW  FC
2FC2:  BTFSC  FD8.0
2FC4:  BRA    315C
2FC6:  ADDLW  04
2FC8:  GOTO   3160
....................     { 
....................     case COMM_INIT: 
....................       comm_ridx = 0; 
2FCC:  CLRF   52
....................       comm_state++; 
2FCE:  INCF   51,F
....................       break; 
2FD0:  BRA    315C
....................     case COMM_WAIT_DLR: 
.................... #ignore_warnings 201 
....................     if (COM1_rcnt) 
2FD2:  MOVF   2E,F
2FD4:  BZ    303C
....................       { 
....................       chr = COM1_get_chr(); 
2FD6:  CALL   0FCA
2FDA:  MOVLB  1
2FDC:  CLRF   x87
2FDE:  MOVFF  01,186
....................       if (chr) 
2FE2:  MOVF   x86,W
2FE4:  IORWF  x87,W
2FE6:  BZ    303E
....................           if (chr == '$') 
2FE8:  MOVF   x86,W
2FEA:  SUBLW  24
2FEC:  BNZ   2FFE
2FEE:  MOVF   x87,F
2FF0:  BNZ   2FFE
....................              { 
....................              comm_state++; 
2FF2:  INCF   51,F
....................              comm_timeout = 0; 
2FF4:  MOVLB  0
2FF6:  CLRF   xA4
2FF8:  CLRF   xA3
....................              }    
2FFA:  BRA    303C
2FFC:  MOVLB  1
....................            else 
....................               COM1_send_str("\r\n$FAULT\r\n"); 
2FFE:  MOVLW  01
3000:  MOVWF  FEA
3002:  MOVLW  8A
3004:  MOVWF  FE9
3006:  MOVFF  FF2,1A7
300A:  BCF    FF2.7
300C:  MOVLW  0B
300E:  MOVWF  01
3010:  CLRF   FF7
3012:  MOVLW  00
3014:  MOVLB  0
3016:  CALL   04AC
301A:  TBLRD*-
301C:  TBLRD*+
301E:  MOVFF  FF5,FEE
3022:  DECFSZ 01,F
3024:  BRA    301C
3026:  MOVLB  1
3028:  BTFSC  xA7.7
302A:  BSF    FF2.7
302C:  MOVLW  01
302E:  MOVLB  2
3030:  MOVWF  x6D
3032:  MOVLW  8A
3034:  MOVWF  x6C
3036:  MOVLB  0
3038:  CALL   0C18
303C:  MOVLB  1
....................       } 
....................       break; 
303E:  MOVLB  0
3040:  BRA    315C
....................     case COMM_WAIT_CR: 
....................       if (COM1_rcnt) 
3042:  MOVF   2E,F
3044:  BTFSC  FD8.2
3046:  BRA    312E
....................         { 
....................         comm_timeout = 0; 
3048:  CLRF   xA4
304A:  CLRF   xA3
....................         chr = COM1_get_chr(); 
304C:  CALL   0FCA
3050:  MOVLB  1
3052:  CLRF   x87
3054:  MOVFF  01,186
....................         comm_buf[comm_ridx++] = chr; 
3058:  MOVF   52,W
305A:  INCF   52,F
305C:  CLRF   03
305E:  ADDLW  53
3060:  MOVWF  FE9
3062:  MOVLW  00
3064:  ADDWFC 03,W
3066:  MOVWF  FEA
3068:  MOVFF  186,FEF
....................         if (comm_ridx > 70) 
306C:  MOVF   52,W
306E:  SUBLW  46
3070:  BC    307A
....................           { 
....................           comm_state = 0; 
3072:  CLRF   51
....................           break; 
3074:  MOVLB  0
3076:  BRA    315C
3078:  MOVLB  1
....................           } 
....................         if (chr == 13) 
307A:  MOVF   x86,W
307C:  SUBLW  0D
307E:  BNZ   30E4
3080:  MOVF   x87,F
3082:  BNZ   30E4
....................           { 
....................           ret = process_dollar_commands(); 
3084:  MOVLB  0
3086:  GOTO   240A
308A:  MOVLB  1
308C:  CLRF   x89
308E:  MOVFF  01,188
....................           if (ret != 255) 
3092:  INCFSZ x88,W
3094:  BRA    309A
3096:  MOVF   x89,F
3098:  BZ    30DA
....................             COM1_send_str("\r\n$OK\r\n"); 
309A:  MOVLW  01
309C:  MOVWF  FEA
309E:  MOVLW  95
30A0:  MOVWF  FE9
30A2:  MOVFF  FF2,1A7
30A6:  BCF    FF2.7
30A8:  MOVLW  08
30AA:  MOVWF  01
30AC:  CLRF   FF7
30AE:  MOVLW  00
30B0:  MOVLB  0
30B2:  CALL   04D2
30B6:  TBLRD*-
30B8:  TBLRD*+
30BA:  MOVFF  FF5,FEE
30BE:  DECFSZ 01,F
30C0:  BRA    30B8
30C2:  MOVLB  1
30C4:  BTFSC  xA7.7
30C6:  BSF    FF2.7
30C8:  MOVLW  01
30CA:  MOVLB  2
30CC:  MOVWF  x6D
30CE:  MOVLW  95
30D0:  MOVWF  x6C
30D2:  MOVLB  0
30D4:  CALL   0C18
30D8:  MOVLB  1
....................           COM1_init(); 
30DA:  MOVLB  0
30DC:  CALL   06A4
....................           } 
30E0:  BRA    312E
30E2:  MOVLB  1
....................         else if (chr == 27) 
30E4:  MOVF   x86,W
30E6:  SUBLW  1B
30E8:  BNZ   3130
30EA:  MOVF   x87,F
30EC:  BNZ   3130
....................           { 
....................           COM1_send_str("\r\nBREAK\r\n"); 
30EE:  MOVLW  01
30F0:  MOVWF  FEA
30F2:  MOVLW  9D
30F4:  MOVWF  FE9
30F6:  MOVFF  FF2,1A7
30FA:  BCF    FF2.7
30FC:  MOVLW  0A
30FE:  MOVWF  01
3100:  CLRF   FF7
3102:  MOVLW  00
3104:  MOVLB  0
3106:  CALL   04F4
310A:  TBLRD*-
310C:  TBLRD*+
310E:  MOVFF  FF5,FEE
3112:  DECFSZ 01,F
3114:  BRA    310C
3116:  MOVLB  1
3118:  BTFSC  xA7.7
311A:  BSF    FF2.7
311C:  MOVLW  01
311E:  MOVLB  2
3120:  MOVWF  x6D
3122:  MOVLW  9D
3124:  MOVWF  x6C
3126:  MOVLB  0
3128:  CALL   0C18
....................           comm_state = 0; 
312C:  CLRF   51
312E:  MOVLB  1
....................           } 
....................         } 
....................  
....................       if (comm_state > COMM_WAIT_DLR) 
3130:  MOVF   51,W
3132:  SUBLW  01
3134:  BC    3158
....................         if (TMR_100MS_COMM_TO) 
3136:  BTFSS  20.1
3138:  BRA    3158
....................           { 
....................           TMR_100MS_COMM_TO = 0; 
313A:  BCF    20.1
....................           if (++comm_timeout > 10000) // time out after 10 seconds from last char 
313C:  MOVLB  0
313E:  INCF   xA3,F
3140:  BTFSC  FD8.2
3142:  INCF   xA4,F
3144:  MOVF   xA4,W
3146:  SUBLW  26
3148:  BC    3156
314A:  XORLW  FF
314C:  BNZ   3154
314E:  MOVF   xA3,W
3150:  SUBLW  10
3152:  BC    3156
....................             comm_state = 0; 
3154:  CLRF   51
3156:  MOVLB  1
....................           } 
....................       break; 
3158:  MOVLB  0
315A:  BRA    315C
....................     case COMM_DELAY: 
....................       break; 
....................     } 
315C:  GOTO   3192 (RETURN)
....................   } 
....................  
....................  
.................... //---------------------------------------------------------------------------- 
.................... void clear_comm_errors(void) 
....................   { 
....................   UCHAR chr; 
....................   if (OERR) 
*
0FA4:  BTFSS  FAB.1
0FA6:  BRA    0FBC
....................     { 
....................     OERR = 0; 
0FA8:  BCF    FAB.1
....................     CREN = 0; 
0FAA:  BCF    FAB.4
....................     delay_us(5); 
0FAC:  CLRWDT
0FAE:  MOVLW  05
0FB0:  MOVWF  00
0FB2:  DECFSZ 00,F
0FB4:  BRA    0FB2
0FB6:  BRA    0FB8
0FB8:  NOP   
....................     CREN = 1; 
0FBA:  BSF    FAB.4
....................     } 
....................   if (FERR) 
0FBC:  BTFSS  FAB.2
0FBE:  BRA    0FC6
....................     { 
....................     FERR = 0; 
0FC0:  BCF    FAB.2
....................     chr = RCREG1; 
0FC2:  MOVFF  FAE,186
....................     } 
0FC6:  GOTO   3190 (RETURN)
....................   } 
....................  
.................... //---------------------------------------------------------------------------- 
.................... #separate 
.................... void comm_handler(void) 
....................   { 
....................   clear_comm_errors(); 
*
318C:  GOTO   0FA4
....................   dollar_handler(); 
3190:  BRA    2FBE
3192:  GOTO   3318 (RETURN)
....................   } 
....................  
....................  
....................  
....................  
.................... //========== functions ======================================================== 
....................  
.................... //============================================================================= 
.................... void init_io_ports(void) 
....................   { 
....................   output_a(0); 
*
067E:  CLRF   F89
....................   output_b(0); 
0680:  CLRF   F8A
....................   output_c(0); 
0682:  CLRF   F8B
....................   output_d(0); 
0684:  CLRF   F8C
....................   output_e(0); 
0686:  CLRF   F8D
.................... //  set_tris_a(0b11100001); 
.................... //  set_tris_b(0b11000010); 
.................... //  set_tris_c(0b11110001); 
.................... //  set_tris_d(0b10111011); 
.................... //  set_tris_e(0b11111111); 
....................   set_tris_a(0b11100001); 
0688:  MOVLW  E1
068A:  MOVWF  F92
....................   set_tris_b(0b11001001); 
068C:  MOVLW  C9
068E:  MOVWF  F93
....................   set_tris_c(0b10000001); 
0690:  MOVLW  81
0692:  MOVWF  F94
....................   set_tris_d(0b10100010); 
0694:  MOVLW  A2
0696:  MOVWF  F95
....................   set_tris_e(0b11111111); 
0698:  BSF    F96.0
069A:  BSF    F96.1
069C:  BSF    F96.2
069E:  BSF    F96.3
06A0:  GOTO   06DE (RETURN)
....................   } 
....................  
.................... //============================================================================= 
.................... void write_int_eeprom(UINT addr, UCHAR *data, UINT size) 
....................   { 
....................   while (size--) 
*
1386:  MOVLB  1
1388:  MOVFF  1E3,03
138C:  MOVF   xE2,W
138E:  BTFSC  FD8.2
1390:  DECF   xE3,F
1392:  DECF   xE2,F
1394:  IORWF  03,W
1396:  BZ    13F0
....................     write_eeprom(addr++, *data++); 
1398:  MOVF   xDF,W
139A:  MOVWF  03
139C:  MOVF   xDE,W
139E:  INCF   xDE,F
13A0:  BTFSC  FD8.2
13A2:  INCF   xDF,F
13A4:  MOVWF  xE4
13A6:  MOVFF  03,1E5
13AA:  MOVF   xE1,W
13AC:  MOVWF  03
13AE:  MOVF   xE0,W
13B0:  INCF   xE0,F
13B2:  BTFSC  FD8.2
13B4:  INCF   xE1,F
13B6:  MOVWF  FE9
13B8:  MOVFF  03,FEA
13BC:  MOVFF  FEF,1E6
13C0:  MOVF   FF2,W
13C2:  MOVWF  00
13C4:  BCF    FF2.7
13C6:  MOVFF  1E4,FA9
13CA:  MOVFF  1E6,FA8
13CE:  BCF    FA6.6
13D0:  BCF    FA6.7
13D2:  BSF    FA6.2
13D4:  MOVLB  F
13D6:  MOVLW  55
13D8:  MOVWF  FA7
13DA:  MOVLW  AA
13DC:  MOVWF  FA7
13DE:  BSF    FA6.1
13E0:  BTFSC  FA6.1
13E2:  BRA    13E0
13E4:  BCF    FA6.2
13E6:  MOVF   00,W
13E8:  IORWF  FF2,F
13EA:  MOVLB  0
13EC:  BRA    1386
13EE:  MOVLB  1
13F0:  MOVLB  0
13F2:  GOTO   141A (RETURN)
....................   } 
....................  
.................... //============================================================================= 
.................... void read_int_eeprom(UINT addr, UCHAR *data, UINT size) 
....................   { 
....................   while (size--) 
*
071C:  MOVLB  1
071E:  MOVFF  18B,03
0722:  MOVF   x8A,W
0724:  BTFSC  FD8.2
0726:  DECF   x8B,F
0728:  DECF   x8A,F
072A:  IORWF  03,W
072C:  BZ    076C
....................     *data++ = read_eeprom(addr++); 
072E:  MOVF   x89,W
0730:  MOVWF  03
0732:  MOVF   x88,W
0734:  INCF   x88,F
0736:  BTFSC  FD8.2
0738:  INCF   x89,F
073A:  MOVWF  FE9
073C:  MOVFF  03,FEA
0740:  MOVF   x87,W
0742:  MOVWF  03
0744:  MOVF   x86,W
0746:  INCF   x86,F
0748:  BTFSC  FD8.2
074A:  INCF   x87,F
074C:  MOVWF  x8E
074E:  MOVFF  03,18F
0752:  MOVFF  FF2,190
0756:  BCF    FF2.7
0758:  MOVFF  18E,FA9
075C:  BCF    FA6.6
075E:  BCF    FA6.7
0760:  BSF    FA6.0
0762:  MOVF   FA8,W
0764:  BTFSC  x90.7
0766:  BSF    FF2.7
0768:  MOVWF  FEF
076A:  BRA    071E
076C:  MOVLB  0
076E:  GOTO   07A6 (RETURN)
....................   } 
....................  
.................... //============================================================================= 
.................... void write_setup(void) 
....................   { 
....................   if (allow_write == 2975) 
*
13F6:  MOVLB  1
13F8:  MOVF   x63,W
13FA:  SUBLW  9F
13FC:  BNZ   141C
13FE:  MOVF   x64,W
1400:  SUBLW  0B
1402:  BNZ   141C
....................     write_int_eeprom(0, &setup, sizeof(setup)); 
1404:  CLRF   xDF
1406:  CLRF   xDE
1408:  MOVLW  01
140A:  MOVWF  xE1
140C:  MOVLW  1C
140E:  MOVWF  xE0
1410:  CLRF   xE3
1412:  MOVLW  47
1414:  MOVWF  xE2
1416:  MOVLB  0
1418:  BRA    1386
141A:  MOVLB  1
....................   allow_write = 0; 
141C:  CLRF   x64
141E:  CLRF   x63
1420:  MOVLB  0
1422:  RETURN 0
....................   } 
....................  
.................... //============================================================================= 
.................... void read_setup(void) 
....................   { 
....................   read_int_eeprom(0, &setup, sizeof(setup)); 
*
078E:  MOVLB  1
0790:  CLRF   x87
0792:  CLRF   x86
0794:  MOVLW  01
0796:  MOVWF  x89
0798:  MOVLW  1C
079A:  MOVWF  x88
079C:  CLRF   x8B
079E:  MOVLW  47
07A0:  MOVWF  x8A
07A2:  MOVLB  0
07A4:  BRA    071C
....................   if (setup.frequency == 0xFFFF || setup.power_level == 0xFF) 
07A6:  MOVLB  1
07A8:  INCFSZ x1D,W
07AA:  BRA    07B2
07AC:  INCFSZ x1E,W
07AE:  BRA    07B2
07B0:  BRA    07BA
07B2:  INCFSZ x1F,W
07B4:  BRA    07D0
07B6:  MOVF   x20,F
07B8:  BNZ   07D0
....................     memset(&setup, 0, sizeof(setup)); 
07BA:  MOVLW  01
07BC:  MOVWF  FEA
07BE:  MOVLW  1C
07C0:  MOVWF  FE9
07C2:  CLRF   00
07C4:  CLRF   02
07C6:  MOVLW  47
07C8:  MOVWF  01
07CA:  MOVLB  0
07CC:  BRA    0772
07CE:  MOVLB  1
07D0:  MOVLB  0
07D2:  GOTO   3204 (RETURN)
....................   } 
....................  
.................... //----------------------------------------------------------------------------- 
.................... #separate 
.................... void power_output(void) 
....................   { 
....................   UINT power; 
....................  
.................... //  if (input(STANDBY)) 
.................... //    { 
.................... //    if (pwr_command) 
.................... //      output_high(POWER_EN); 
.................... //    else 
.................... //      output_low(POWER_EN); 
....................  
.................... 	if(pa_command) 
*
0EFC:  MOVLB  1
0EFE:  MOVF   x6F,F
0F00:  BZ    0F0A
.................... 	{ 
.................... 		output_high(PREAMP_EN); 
0F02:  BSF    F8C.2
.................... 		output_high(PREAMP2_EN); 
0F04:  BSF    F8B.5
.................... 		output_high(TX_RX_INIT); 
0F06:  BSF    F8C.3
.................... 	} 
0F08:  BRA    0F10
.................... 	else 
.................... 	{ 
.................... 		output_low(PREAMP_EN); 
0F0A:  BCF    F8C.2
.................... 		output_low(PREAMP2_EN); 
0F0C:  BCF    F8B.5
.................... 		output_low(TX_RX_INIT); 
0F0E:  BCF    F8C.3
.................... 	} 
....................  
....................  
....................  
.................... //    set_adc_channel(A2D_VGMON); // select forward power input 
.................... //    delay_us(20); 
.................... //    power = read_adc(); 
.................... //    if (power > VGMON_THRESHOLD) 
.................... //      output_low(PA_ON); 
.................... //    else if (pa_command) 
.................... //      output_high(PA_ON); 
.................... //    else 
.................... //      output_low(PA_ON); 
.................... //    } 
.................... //  else 
.................... //    { 
.................... //    output_low(POWER_EN); 
.................... //    output_low(PA_ON); 
.................... //    } 
....................  
....................  
....................  
....................  
....................  
.................... /* 
....................   if (setup.power_level) 
....................     { 
....................     set_AD5312(DAC_NEG_VOLT, setup.negative_voltage[1]); 
....................     } 
....................   else 
....................     { 
....................     set_AD5312(DAC_NEG_VOLT, setup.negative_voltage[0]); 
....................     } 
.................... */ 
....................  
....................   if (TMR_100MS_POWER) 
0F10:  BTFSS  20.3
0F12:  BRA    0F9E
....................     { 
....................     TMR_100MS_POWER = 0; 
0F14:  BCF    20.3
....................     set_adc_channel(A2D_POWER); // select forward power input 
0F16:  MOVLW  14
0F18:  MOVWF  01
0F1A:  MOVF   FC2,W
0F1C:  ANDLW  83
0F1E:  IORWF  01,W
0F20:  MOVWF  FC2
....................     delay_us(20); 
0F22:  CLRWDT
0F24:  MOVLW  19
0F26:  MOVWF  00
0F28:  DECFSZ 00,F
0F2A:  BRA    0F28
0F2C:  BRA    0F2E
0F2E:  NOP   
....................     power = read_adc(); 
0F30:  BSF    FC2.1
0F32:  BTFSC  FC2.1
0F34:  BRA    0F32
0F36:  MOVFF  FC3,186
0F3A:  MOVFF  FC4,187
....................     power_avg[pavgx] = power; 
0F3E:  BCF    FD8.0
0F40:  RLCF   2C,W
0F42:  MOVWF  02
0F44:  RLCF   2D,W
0F46:  MOVWF  03
0F48:  MOVF   02,W
0F4A:  ADDLW  24
0F4C:  MOVWF  FE9
0F4E:  MOVLW  00
0F50:  ADDWFC 03,W
0F52:  MOVWF  FEA
0F54:  MOVFF  187,FEC
0F58:  MOVF   FED,F
0F5A:  MOVFF  186,FEF
....................     if (++pavgx > 3) 
0F5E:  INCF   2C,F
0F60:  BTFSC  FD8.2
0F62:  INCF   2D,F
0F64:  MOVF   2D,F
0F66:  BNZ   0F6E
0F68:  MOVF   2C,W
0F6A:  SUBLW  03
0F6C:  BC    0F72
....................       pavgx = 0; 
0F6E:  CLRF   2D
0F70:  CLRF   2C
....................     power = (power_avg[0] + power_avg[1] + power_avg[2] + power_avg[3]) / 4; 
0F72:  MOVF   26,W
0F74:  ADDWF  24,W
0F76:  MOVWF  x88
0F78:  MOVF   27,W
0F7A:  ADDWFC 25,W
0F7C:  MOVWF  x89
0F7E:  MOVF   28,W
0F80:  ADDWF  x88,F
0F82:  MOVF   29,W
0F84:  ADDWFC x89,F
0F86:  MOVF   2A,W
0F88:  ADDWF  x88,F
0F8A:  MOVF   2B,W
0F8C:  ADDWFC x89,F
0F8E:  RRCF   x89,W
0F90:  MOVWF  x87
0F92:  RRCF   x88,W
0F94:  MOVWF  x86
0F96:  RRCF   x87,F
0F98:  RRCF   x86,F
0F9A:  MOVLW  3F
0F9C:  ANDWF  x87,F
....................  
....................  
....................  
.................... /* 
....................     if (power < setup.fwd_table[5][0]) 
....................       set_AD5312(DAC_POS_VOLT, METER_OUTPUT1); 
....................  //   else if (power < setup.fwd_table[2][0]) 
....................  //     set_AD5312(DAC_POS_VOLT, METER_OUTPUT2); 
....................  //   else if (power < setup.fwd_table[7][0]) 
....................   //    set_AD5312(DAC_POS_VOLT, METER_OUTPUT3); 
....................     else 
....................       set_AD5312(DAC_POS_VOLT, METER_OUTPUT4); 
....................  
.................... */ 
....................     } 
0F9E:  MOVLB  0
0FA0:  GOTO   3316 (RETURN)
....................   } 
....................  
....................  
....................  
....................  
....................  
....................  
.................... //============================================================================= 
.................... #separate 
.................... void delay_mst(UINT delay) 
....................   { 
....................   TMR_1MS_DELAY = 0; 
....................   while (delay) 
....................     { 
....................     if (TMR_1MS_DELAY) 
....................       { 
....................       TMR_1MS_DELAY = 0; 
....................       delay--; 
....................       } 
....................     } 
....................   } 
....................  
.................... //============================================================================= 
.................... void init_system(void) 
....................   { 
....................  
....................   setup_timer_2(T2_DIV_BY_4,99,10);    // 1.0 ms interrupt 
*
06B4:  MOVLW  48
06B6:  IORLW  05
06B8:  MOVWF  FBA
06BA:  MOVLW  63
06BC:  MOVWF  FBB
....................   setup_timer_3(T3_DISABLED | T3_DIV_BY_1); 
06BE:  CLRF   FB4
06C0:  CLRF   FB1
....................   setup_timer_4(T4_DIV_BY_4,99,1);     // 100 us interrupt 
06C2:  MOVLW  00
06C4:  IORLW  05
06C6:  MOVLB  F
06C8:  MOVWF  x51
06CA:  MOVLW  63
06CC:  MOVWF  x52
....................   setup_timer_5(T5_DISABLED | T5_DIV_BY_1); 
06CE:  CLRF   x4D
06D0:  CLRF   x4E
....................   setup_timer_6(T6_DISABLED,0,1); 
06D2:  MOVLW  00
06D4:  MOVWF  x4A
06D6:  MOVLW  00
06D8:  MOVWF  x4B
....................   //setup_timer_6(T6_DIV_BY_4,99,10000);  //1.0 sec interrupt 
....................  
....................   init_io_ports(); 
06DA:  MOVLB  0
06DC:  BRA    067E
.................... //  setup_ccp5(CCP_OFF);								//  0       4       5       6      9      25 
.................... 													    //MCU_3P3 RREV    FFWR2   FFWR1  SENS_28V TMP 
....................   setup_adc_ports(sAN0|sAN4|sAN5|sAN6|sAN9|sAN25);   	//PIN_A0, PIN_A5, PIN_E0, PIN_E1,PIN_B3,PIN_D5 
06DE:  MOVF   FC1,W
06E0:  ANDLW  F0
06E2:  MOVWF  FC1
06E4:  MOVLW  21
06E6:  MOVLB  F
06E8:  MOVWF  x38
06EA:  MOVLW  03
06EC:  MOVWF  x3C
06EE:  MOVLW  08
06F0:  MOVWF  x39
06F2:  MOVLW  00
06F4:  MOVWF  x3A
06F6:  MOVLW  20
06F8:  MOVWF  x3B
....................   setup_adc(ADC_CLOCK_DIV_16|ADC_TAD_MUL_8); 
06FA:  MOVF   FC0,W
06FC:  ANDLW  C0
06FE:  IORLW  25
0700:  MOVWF  FC0
0702:  BSF    FC0.7
0704:  BSF    FC2.0
....................  
....................   setup_comparator(NC_NC_NC_NC); 
0706:  CLRF   F77
0708:  MOVLW  04
070A:  MOVWF  F78
070C:  MOVWF  F79
....................  
....................   COM1_init(); 
070E:  MOVLB  0
0710:  RCALL  06A4
....................   enable_interrupts(INT_TIMER2); 
0712:  BSF    F9D.1
....................   enable_interrupts(GLOBAL); 
0714:  MOVLW  C0
0716:  IORWF  FF2,F
0718:  GOTO   3200 (RETURN)
....................   } 
....................  
.................... //============================================================================= 
.................... void update_all(void) 
....................   { 
....................   UINT freq; 
....................   freq = setup.frequency; 
*
0BDE:  MOVFF  11E,1DF
0BE2:  MOVFF  11D,1DE
....................   PLL1_compute_freq_parameters(freq * 10); 
0BE6:  MOVFF  1DF,1E1
0BEA:  MOVFF  1DE,1E0
0BEE:  MOVLB  1
0BF0:  CLRF   xE3
0BF2:  MOVLW  0A
0BF4:  MOVWF  xE2
0BF6:  MOVLB  0
0BF8:  BRA    09AC
0BFA:  MOVFF  02,1E1
0BFE:  MOVFF  01,1E0
0C02:  MOVFF  02,1E3
0C06:  MOVFF  01,1E2
0C0A:  RCALL  0ABE
....................   PLL1_update(); 
0C0C:  RCALL  08D6
....................   power_control = 1000; 
0C0E:  MOVLW  03
0C10:  MOVWF  19
0C12:  MOVLW  E8
0C14:  MOVWF  18
0C16:  RETURN 0
....................   } 
....................  
.................... //============================================================================= 
.................... void main(void) 
*
3196:  CLRF   FF8
3198:  BCF    FD0.7
319A:  BSF    07.7
319C:  MOVLW  70
319E:  MOVWF  FD3
31A0:  BCF    F9B.6
31A2:  BCF    F9B.7
31A4:  BCF    FB8.3
31A6:  MOVLW  19
31A8:  MOVWF  FAF
31AA:  MOVLW  A6
31AC:  MOVWF  FAC
31AE:  MOVLW  90
31B0:  MOVWF  FAB
31B2:  BCF    F95.7
31B4:  BSF    F8C.7
31B6:  CLRF   2D
31B8:  CLRF   2C
31BA:  MOVLB  1
31BC:  CLRF   x64
31BE:  CLRF   x63
31C0:  CLRF   x6E
31C2:  MOVFF  11C,16F
31C6:  MOVLW  01
31C8:  MOVWF  x70
31CA:  CLRF   x71
31CC:  CLRF   x73
31CE:  CLRF   x72
31D0:  MOVF   FC1,W
31D2:  ANDLW  F0
31D4:  MOVWF  FC1
31D6:  MOVLW  00
31D8:  MOVLB  F
31DA:  MOVWF  x38
31DC:  MOVWF  x3C
31DE:  MOVWF  x39
31E0:  MOVWF  x3A
31E2:  MOVWF  x3B
31E4:  MOVLB  1
31E6:  CLRF   x88
31E8:  CLRF   F77
31EA:  CLRF   F78
31EC:  CLRF   F79
31EE:  MOVLW  03
31F0:  MOVWF  x75
31F2:  MOVLW  E8
31F4:  MOVWF  x74
31F6:  CLRF   x77
31F8:  CLRF   x76
....................   { 
....................   int16 vouta = 1000; 
....................   int16 count_1sec = 0; 
....................   init_system(); 
31FA:  MOVLB  0
31FC:  GOTO   06B4
....................  
....................   read_setup(); 
3200:  GOTO   078E
....................  
....................   power_level = setup.power_in[setup.power_level]; 
3204:  BCF    FD8.0
3206:  MOVLB  1
3208:  RLCF   x1F,W
320A:  MOVWF  02
320C:  RLCF   x20,W
320E:  MOVWF  03
3210:  MOVF   02,W
3212:  ADDLW  27
3214:  MOVWF  FE9
3216:  MOVLW  01
3218:  ADDWFC 03,W
321A:  MOVWF  FEA
321C:  MOVFF  FEC,17
3220:  MOVF   FED,F
3222:  MOVFF  FEF,16
....................   power_control = 1000; 
3226:  MOVLW  03
3228:  MOVWF  19
322A:  MOVLW  E8
322C:  MOVWF  18
.................... //  power_output(); 
....................  
....................  
....................   PLL1_initialize(); 
322E:  MOVLB  0
3230:  GOTO   0942
....................  
....................   update_all(); 
3234:  CALL   0BDE
....................  
....................   COM1_send_str("\r\n"); 
3238:  MOVLW  0D
323A:  MOVLB  1
323C:  MOVWF  x78
323E:  MOVLW  0A
3240:  MOVWF  x79
3242:  CLRF   x7A
3244:  MOVLW  01
3246:  MOVLB  2
3248:  MOVWF  x6D
324A:  MOVLW  78
324C:  MOVWF  x6C
324E:  MOVLB  0
3250:  CALL   0C18
....................   COM1_send_str(VERSION); 
3254:  MOVLW  01
3256:  MOVWF  FEA
3258:  MOVLW  78
325A:  MOVWF  FE9
325C:  MOVFF  FF2,186
3260:  BCF    FF2.7
3262:  MOVLW  0E
3264:  MOVWF  01
3266:  CLRF   FF7
3268:  MOVLW  00
326A:  CALL   0518
326E:  TBLRD*-
3270:  TBLRD*+
3272:  MOVFF  FF5,FEE
3276:  DECFSZ 01,F
3278:  BRA    3270
327A:  MOVLB  1
327C:  BTFSC  x86.7
327E:  BSF    FF2.7
3280:  MOVLW  01
3282:  MOVLB  2
3284:  MOVWF  x6D
3286:  MOVLW  78
3288:  MOVWF  x6C
328A:  MOVLB  0
328C:  CALL   0C18
....................   COM1_send_str("\r\n"); 
3290:  MOVLW  0D
3292:  MOVLB  1
3294:  MOVWF  x78
3296:  MOVLW  0A
3298:  MOVWF  x79
329A:  CLRF   x7A
329C:  MOVLW  01
329E:  MOVLB  2
32A0:  MOVWF  x6D
32A2:  MOVLW  78
32A4:  MOVWF  x6C
32A6:  MOVLB  0
32A8:  CALL   0C18
....................  
....................   set_AD5312(DAC_POS_VOLT, vouta); 
32AC:  MOVLB  1
32AE:  CLRF   xDE
32B0:  MOVFF  175,1E0
32B4:  MOVFF  174,1DF
32B8:  MOVLB  0
32BA:  CALL   0CAC
....................  
....................   delay_ms(2000); 
32BE:  MOVLW  08
32C0:  MOVLB  1
32C2:  MOVWF  x86
32C4:  MOVLW  FA
32C6:  MOVWF  x8A
32C8:  MOVLB  0
32CA:  CALL   07D6
32CE:  MOVLB  1
32D0:  DECFSZ x86,F
32D2:  BRA    32C4
.................... //  output_high(POWER_EN); 
....................  
....................   output_low(BIT_MODE_EN);		//init BIT MODE EN to off 
32D4:  BCF    F8B.4
....................   
....................  
....................  
.................... #ignore_warnings 203 
....................   while (1) 
....................     { 
....................     if (TMR_100mS_BLINK) 
32D6:  BTFSS  20.0
32D8:  BRA    32EE
....................       { 
....................       TMR_100mS_BLINK = 0; 
32DA:  BCF    20.0
....................       if (setup.power_level) 
32DC:  MOVF   x1F,W
32DE:  IORWF  x20,W
32E0:  BZ    32E6
....................         output_high(LED1); 
32E2:  BSF    F8B.0
32E4:  BRA    32E8
....................       else 
....................         output_toggle(LED1); 
32E6:  BTG    F8B.0
....................       delay_us(1); 
32E8:  CLRWDT
32EA:  BRA    32EC
32EC:  NOP   
....................       } 
.................... 	   
.................... 	if(bit_mode == 1) 
32EE:  DECFSZ x71,W
32F0:  BRA    3310
.................... 	{ 
.................... 		if(TMR_1Sec_BIT_EN) 
32F2:  BTFSS  22.3
32F4:  BRA    3310
.................... 		{ 
.................... 			TMR_1Sec_BIT_EN = 0; 
32F6:  BCF    22.3
.................... 			count_1sec++; 
32F8:  INCF   x76,F
32FA:  BTFSC  FD8.2
32FC:  INCF   x77,F
.................... 			if(count_1sec >= 10) 
32FE:  MOVF   x77,F
3300:  BNZ   3308
3302:  MOVF   x76,W
3304:  SUBLW  09
3306:  BC    3310
.................... 			{	 
.................... 				count_1sec = 0; 
3308:  CLRF   x77
330A:  CLRF   x76
.................... 				output_low(BIT_MODE_EN); 
330C:  BCF    F8B.4
....................   				bit_mode = 0; 
330E:  CLRF   x71
.................... 			} 
.................... 		} 
.................... 	} 
....................     power_output(); 
3310:  MOVLB  0
3312:  GOTO   0EFC
....................     comm_handler(); 
3316:  BRA    318C
3318:  MOVLB  1
331A:  BRA    32D6
....................     } 
....................  
....................   vouta = 1; 
331C:  CLRF   x75
331E:  MOVLW  01
3320:  MOVWF  x74
....................   } 
....................  
3322:  BRA    3322
....................  
....................  

Configuration Fuses:
   Word  1: F800   INTRC_IO PLLEN PRIMARY_ON FCMEN IESO
   Word  2: 1C19   NOPUT NOBROWNOUT BORV19 NOWDT WDT128
   Word  3: BF00   CCP2C1 PBADEN CCP3B5 HFOFST TIMER3C0 CCP2D2 MCLR
   Word  4: 0000   NOSTVREN NOLVP NOXINST DEBUG
   Word  5: C00F   NOPROTECT NOCPB NOCPD
   Word  6: E00F   NOWRT NOWRTC NOWRTB NOWRTD
   Word  7: 400F   NOEBTR NOEBTRB

   Some fuses have been forced to be compatible with the ICD debugger.
